###############################################################################
#
# IAR ELF Linker V7.80.2.11947/W32 for ARM                09/Mar/2017  19:54:37
# Copyright 2007-2016 IAR Systems AB.
#
#    Output file  =  
#        D:\jenkins-slave\workspaces\Executor-0\super\app\mcu_example\EFM32GG_STK3700\lightsense\iar\lightsense\Debug\Exe\lightsense.out
#    Map file     =  
#        D:\jenkins-slave\workspaces\Executor-0\super\app\mcu_example\EFM32GG_STK3700\lightsense\iar\lightsense\Debug\List\lightsense.map
#    Command line =  
#        D:\jenkins-slave\workspaces\Executor-0\super\app\mcu_example\EFM32GG_STK3700\lightsense\iar\lightsense\Debug\Obj\bsp_trace.o
#        D:\jenkins-slave\workspaces\Executor-0\super\app\mcu_example\EFM32GG_STK3700\lightsense\iar\lightsense\Debug\Obj\em_acmp.o
#        D:\jenkins-slave\workspaces\Executor-0\super\app\mcu_example\EFM32GG_STK3700\lightsense\iar\lightsense\Debug\Obj\em_assert.o
#        D:\jenkins-slave\workspaces\Executor-0\super\app\mcu_example\EFM32GG_STK3700\lightsense\iar\lightsense\Debug\Obj\em_cmu.o
#        D:\jenkins-slave\workspaces\Executor-0\super\app\mcu_example\EFM32GG_STK3700\lightsense\iar\lightsense\Debug\Obj\em_core.o
#        D:\jenkins-slave\workspaces\Executor-0\super\app\mcu_example\EFM32GG_STK3700\lightsense\iar\lightsense\Debug\Obj\em_emu.o
#        D:\jenkins-slave\workspaces\Executor-0\super\app\mcu_example\EFM32GG_STK3700\lightsense\iar\lightsense\Debug\Obj\em_gpio.o
#        D:\jenkins-slave\workspaces\Executor-0\super\app\mcu_example\EFM32GG_STK3700\lightsense\iar\lightsense\Debug\Obj\em_lcd.o
#        D:\jenkins-slave\workspaces\Executor-0\super\app\mcu_example\EFM32GG_STK3700\lightsense\iar\lightsense\Debug\Obj\em_lesense.o
#        D:\jenkins-slave\workspaces\Executor-0\super\app\mcu_example\EFM32GG_STK3700\lightsense\iar\lightsense\Debug\Obj\em_pcnt.o
#        D:\jenkins-slave\workspaces\Executor-0\super\app\mcu_example\EFM32GG_STK3700\lightsense\iar\lightsense\Debug\Obj\em_prs.o
#        D:\jenkins-slave\workspaces\Executor-0\super\app\mcu_example\EFM32GG_STK3700\lightsense\iar\lightsense\Debug\Obj\em_rtc.o
#        D:\jenkins-slave\workspaces\Executor-0\super\app\mcu_example\EFM32GG_STK3700\lightsense\iar\lightsense\Debug\Obj\em_system.o
#        D:\jenkins-slave\workspaces\Executor-0\super\app\mcu_example\EFM32GG_STK3700\lightsense\iar\lightsense\Debug\Obj\lightsense.o
#        D:\jenkins-slave\workspaces\Executor-0\super\app\mcu_example\EFM32GG_STK3700\lightsense\iar\lightsense\Debug\Obj\segmentlcd.o
#        D:\jenkins-slave\workspaces\Executor-0\super\app\mcu_example\EFM32GG_STK3700\lightsense\iar\lightsense\Debug\Obj\startup_efm32gg.o
#        D:\jenkins-slave\workspaces\Executor-0\super\app\mcu_example\EFM32GG_STK3700\lightsense\iar\lightsense\Debug\Obj\system_efm32gg.o
#        --redirect _Printf=_PrintfFull --redirect _Scanf=_ScanfFull -o
#        D:\jenkins-slave\workspaces\Executor-0\super\app\mcu_example\EFM32GG_STK3700\lightsense\iar\lightsense\Debug\Exe\lightsense.out
#        --map
#        D:\jenkins-slave\workspaces\Executor-0\super\app\mcu_example\EFM32GG_STK3700\lightsense\iar\lightsense\Debug\List\lightsense.map
#        --config
#        T:\iar_ew_7802_win32_rel_1\arm\config\linker\SiliconLaboratories\EFM32GG990F1024.icf
#        --entry __iar_program_start --vfe
#
###############################################################################

*******************************************************************************
*** RUNTIME MODEL ATTRIBUTES
***

CppFlavor       = *
__SystemLibrary = DLib


*******************************************************************************
*** PLACEMENT SUMMARY
***

"A0":  place at 0x00000000 { ro section .intvec };
"P1":  place in [from 0x00000000 to 0x000fffff] { ro };
"P2":  place in [from 0x20000000 to 0x2001ffff] { rw, block CSTACK, block HEAP };
initialize by copy { rw };
 { section .intvec };

  Section            Kind        Address    Size  Object
  -------            ----        -------    ----  ------
"A0":                                       0xdc
  .intvec            ro code  0x00000000    0xdc  startup_efm32gg.o [1]
                            - 0x000000dc    0xdc

"P1":                                     0x3a09
  .text              ro code  0x000000dc   0xd28  em_cmu.o [1]
  .text              ro code  0x00000e04   0x138  system_efm32gg.o [1]
  .text              ro code  0x00000f3c   0x65c  lightsense.o [1]
  .text              ro code  0x00001598   0x47c  em_gpio.o [1]
  .text              ro code  0x00001a14    0x4c  em_system.o [1]
  .text              ro code  0x00001a60   0x120  em_acmp.o [1]
  .text              ro code  0x00001b80   0x640  em_lesense.o [1]
  .text              ro code  0x000021c0    0x2c  em_prs.o [1]
  .text              ro code  0x000021ec   0x3f8  em_pcnt.o [1]
  .text              ro code  0x000025e4    0x84  em_rtc.o [1]
  .text              ro code  0x00002668   0x114  bsp_trace.o [1]
  .text              ro code  0x0000277c     0x8  em_core.o [1]
  .text              ro code  0x00002784   0x5dc  segmentlcd.o [1]
  .text              ro code  0x00002d60     0x8  em_core.o [1]
  .text              ro code  0x00002d68   0x1d0  em_emu.o [1]
  .text              ro code  0x00002f38   0x43c  em_lcd.o [1]
  .text              ro code  0x00003374     0x8  abs.o [3]
  .text              ro code  0x0000337c    0x36  strlen.o [4]
  .rodata            const    0x000033b2     0x2  segmentlcd.o [1]
  .rodata            const    0x000033b4   0x200  lightsense.o [1]
  .rodata            const    0x000035b4   0x200  segmentlcd.o [1]
  .rodata            const    0x000037b4    0xb8  segmentlcd.o [1]
  .rodata            const    0x0000386c    0x40  lightsense.o [1]
  .text              ro code  0x000038ac    0x38  packbits_init_single.o [4]
  .rodata            const    0x000038e4    0x34  lightsense.o [1]
  .text              ro code  0x00003918    0x28  data_init.o [4]
  .rodata            const    0x00003940    0x24  segmentlcd.o [1]
  .iar.init_table    const    0x00003964    0x10  - Linker created -
  .text              ro code  0x00003974    0x1a  cmain.o [4]
  .text              ro code  0x0000398e     0x4  low_level_init.o [3]
  .text              ro code  0x00003992     0x4  exit.o [3]
  .text              ro code  0x00003998     0xa  cexit.o [4]
  .text              ro code  0x000039a4     0xc  XXexit.o [4]
  .rodata            const    0x000039b0    0x18  lightsense.o [1]
  .rodata            const    0x000039c8    0x18  lightsense.o [1]
  .rodata            const    0x000039e0    0x14  segmentlcd.o [1]
  .text              ro code  0x000039f4    0x10  startup_efm32gg.o [1]
  .text              ro code  0x00003a04     0xc  cstartup_M.o [4]
  .rodata            const    0x00003a10     0x8  lightsense.o [1]
  .rodata            const    0x00003a18     0x8  lightsense.o [1]
  .rodata            const    0x00003a20     0x8  lightsense.o [1]
  .rodata            const    0x00003a28     0x4  lightsense.o [1]
  .text              ro code  0x00003a2c     0x4  startup_efm32gg.o [1]
  .text              ro code  0x00003a30     0x4  startup_efm32gg.o [1]
  .text              ro code  0x00003a34     0x4  startup_efm32gg.o [1]
  .text              ro code  0x00003a38     0x4  startup_efm32gg.o [1]
  .text              ro code  0x00003a3c     0x4  startup_efm32gg.o [1]
  .text              ro code  0x00003a40     0x4  startup_efm32gg.o [1]
  .text              ro code  0x00003a44     0x4  startup_efm32gg.o [1]
  .text              ro code  0x00003a48     0x4  startup_efm32gg.o [1]
  .text              ro code  0x00003a4c     0x4  startup_efm32gg.o [1]
  .text              ro code  0x00003a50     0x4  startup_efm32gg.o [1]
  .text              ro code  0x00003a54     0x4  startup_efm32gg.o [1]
  .text              ro code  0x00003a58     0x4  startup_efm32gg.o [1]
  .text              ro code  0x00003a5c     0x4  startup_efm32gg.o [1]
  .text              ro code  0x00003a60     0x4  startup_efm32gg.o [1]
  .text              ro code  0x00003a64     0x4  startup_efm32gg.o [1]
  .text              ro code  0x00003a68     0x4  startup_efm32gg.o [1]
  .text              ro code  0x00003a6c     0x4  startup_efm32gg.o [1]
  .text              ro code  0x00003a70     0x4  startup_efm32gg.o [1]
  .text              ro code  0x00003a74     0x4  startup_efm32gg.o [1]
  .text              ro code  0x00003a78     0x4  startup_efm32gg.o [1]
  .text              ro code  0x00003a7c     0x4  startup_efm32gg.o [1]
  .text              ro code  0x00003a80     0x4  startup_efm32gg.o [1]
  .text              ro code  0x00003a84     0x4  startup_efm32gg.o [1]
  .text              ro code  0x00003a88     0x4  startup_efm32gg.o [1]
  .text              ro code  0x00003a8c     0x4  startup_efm32gg.o [1]
  .text              ro code  0x00003a90     0x4  startup_efm32gg.o [1]
  .text              ro code  0x00003a94     0x4  startup_efm32gg.o [1]
  .text              ro code  0x00003a98     0x4  startup_efm32gg.o [1]
  .text              ro code  0x00003a9c     0x4  startup_efm32gg.o [1]
  .text              ro code  0x00003aa0     0x4  startup_efm32gg.o [1]
  .text              ro code  0x00003aa4     0x4  startup_efm32gg.o [1]
  .text              ro code  0x00003aa8     0x4  startup_efm32gg.o [1]
  .text              ro code  0x00003aac     0x4  startup_efm32gg.o [1]
  .text              ro code  0x00003ab0     0x4  startup_efm32gg.o [1]
  .text              ro code  0x00003ab4     0x4  startup_efm32gg.o [1]
  .text              ro code  0x00003ab8     0x4  startup_efm32gg.o [1]
  .text              ro code  0x00003abc     0x4  startup_efm32gg.o [1]
  .text              ro code  0x00003ac0     0x4  startup_efm32gg.o [1]
  .text              ro code  0x00003ac4     0x4  startup_efm32gg.o [1]
  .text              ro code  0x00003ac8     0x4  startup_efm32gg.o [1]
  .text              ro code  0x00003acc     0x4  startup_efm32gg.o [1]
  .text              ro code  0x00003ad0     0x4  startup_efm32gg.o [1]
  .text              ro code  0x00003ad4     0x4  startup_efm32gg.o [1]
  .text              ro code  0x00003ad8     0x4  startup_efm32gg.o [1]
  .rodata            const    0x00003adc     0x0  packbits_init_single.o [4]
  Initializer bytes  const    0x00003adc     0x9  <for P2-1>
                            - 0x00003ae5  0x3a09

"P2", part 1 of 2:                          0x15
  P2-1                        0x20000000    0x15  <Init block>
    .data            inited   0x20000000     0x4  system_efm32gg.o [1]
    .data            inited   0x20000004     0x4  system_efm32gg.o [1]
    .bss             inited   0x20000008     0x4  em_emu.o [1]
    .bss             inited   0x2000000c     0x4  system_efm32gg.o [1]
    .bss             inited   0x20000010     0x1  em_emu.o [1]
    .bss             inited   0x20000011     0x1  lightsense.o [1]
    .bss             inited   0x20000012     0x1  lightsense.o [1]
    .bss             inited   0x20000013     0x1  lightsense.o [1]
    .bss             inited   0x20000014     0x1  lightsense.o [1]
                            - 0x20000015    0x15

"P2", part 2 of 2:                         0x400
  CSTACK                      0x20000018   0x400  <Block>
    CSTACK           uninit   0x20000018   0x400  <Block tail>
                            - 0x20000418   0x400


*******************************************************************************
*** INIT TABLE
***

          Address     Size
          -------     ----
Copy/packbits (__iar_packbits_init_single3)
    1 source range, total size 0x9 (42% of destination):
          0x00003adc   0x9
    1 destination range, total size 0x15:
          0x20000000  0x15



*******************************************************************************
*** MODULE SUMMARY
***

    Module                  ro code  ro data  rw data
    ------                  -------  -------  -------
D:\jenkins-slave\workspaces\Executor-0\super\app\mcu_example\EFM32GG_STK3700\lightsense\iar\lightsense\Debug\Obj: [1]
    bsp_trace.o                 276
    em_acmp.o                   288
    em_cmu.o                  3 368
    em_core.o                    16
    em_emu.o                    464        3        5
    em_gpio.o                 1 148
    em_lcd.o                  1 084
    em_lesense.o              1 600
    em_pcnt.o                 1 016
    em_prs.o                     44
    em_rtc.o                    132
    em_system.o                  76
    lightsense.o              1 628      706        4
    segmentlcd.o              1 500      754
    startup_efm32gg.o           412
    system_efm32gg.o            312        4       12
    -------------------------------------------------
    Total:                   13 364    1 467       21

command line: [2]
    -------------------------------------------------
    Total:

dl7M_tln.a: [3]
    abs.o                         8
    exit.o                        4
    low_level_init.o              4
    -------------------------------------------------
    Total:                       16

rt7M_tl.a: [4]
    XXexit.o                     12
    cexit.o                      10
    cmain.o                      26
    cstartup_M.o                 12
    data_init.o                  40
    packbits_init_single.o       56
    strlen.o                     54
    -------------------------------------------------
    Total:                      210

    Gaps                          4
    Linker created                        16    1 024
-----------------------------------------------------
    Grand Total:             13 594    1 483    1 045


*******************************************************************************
*** ENTRY LIST
***

Entry                      Address   Size  Type      Object
-----                      -------   ----  ----      ------
.iar.init_table$$Base   0x00003964          --   Gb  - Linker created -
.iar.init_table$$Limit  0x00003974          --   Gb  - Linker created -
?main                   0x00003975         Code  Gb  cmain.o [4]
ACMP_ChannelSet         0x00001ab9   0x44  Code  Gb  em_acmp.o [1]
ACMP_GPIOSetup          0x00001a79   0x40  Code  Gb  em_acmp.o [1]
ACMP_Init               0x00001afd   0x7a  Code  Gb  em_acmp.o [1]
BSP_TraceProfilerSetup  0x00002765   0x18  Code  Gb  bsp_trace.o [1]
BSP_TraceSwoSetup       0x00002669   0xac  Code  Gb  bsp_trace.o [1]
BUS_RegBitRead          0x000000eb   0x10  Code  Lc  em_cmu.o [1]
BUS_RegBitWrite         0x00001a61    0xe  Code  Lc  em_acmp.o [1]
BUS_RegBitWrite         0x000000dd    0xe  Code  Lc  em_cmu.o [1]
BUS_RegBitWrite         0x00001599    0xe  Code  Lc  em_gpio.o [1]
BUS_RegBitWrite         0x00002f63    0xe  Code  Lc  em_lcd.o [1]
BUS_RegBitWrite         0x00001b81    0xe  Code  Lc  em_lesense.o [1]
BUS_RegBitWrite         0x000021ed    0xe  Code  Lc  em_pcnt.o [1]
BUS_RegBitWrite         0x000025e5    0xe  Code  Lc  em_rtc.o [1]
BUS_RegMaskedWrite      0x00001a6f    0xa  Code  Lc  em_acmp.o [1]
BUS_RegMaskedWrite      0x000015a7    0xa  Code  Lc  em_gpio.o [1]
CHIP_Init               0x00000fb3   0x34  Code  Lc  lightsense.o [1]
CMU_ClockDivSet         0x00000467  0x24c  Code  Gb  em_cmu.o [1]
CMU_ClockEnable         0x000006b3   0x9c  Code  Gb  em_cmu.o [1]
CMU_ClockFreqGet        0x0000074f  0x18c  Code  Gb  em_cmu.o [1]
CMU_ClockSelectGet      0x000008f1  0x12a  Code  Gb  em_cmu.o [1]
CMU_ClockSelectSet      0x00000a69  0x248  Code  Gb  em_cmu.o [1]
CMU_DivToLog2           0x000000fb   0x20  Code  Lc  em_cmu.o [1]
CMU_LCDClkFDIVSet       0x00000cc5   0x28  Code  Gb  em_cmu.o [1]
CMU_Lock                0x00002d71    0xa  Code  Lc  em_emu.o [1]
CMU_OscillatorEnable    0x00000cf9   0x92  Code  Gb  em_cmu.o [1]
CMU_PCNTClockExternalSet
                        0x00000da5   0x2c  Code  Gb  em_cmu.o [1]
CMU_Unlock              0x00002d7b    0xc  Code  Lc  em_emu.o [1]
CORE_EnterAtomic        0x0000277d    0x8  Code  Wk  em_core.o [1]
CORE_ExitAtomic         0x00002d61    0x8  Code  Wk  em_core.o [1]
CSTACK$$Base            0x20000018          --   Gb  - Linker created -
CSTACK$$Limit           0x20000418          --   Gb  - Linker created -
EFM_Alphabet            0x000037b4   0xb8  Data  Lc  segmentlcd.o [1]
EFM_Display             0x000035b4  0x200  Data  Lc  segmentlcd.o [1]
EFM_Numbers             0x00003940   0x24  Data  Lc  segmentlcd.o [1]
EMU_EnterEM2            0x00002e93   0x6c  Code  Gb  em_emu.o [1]
GPIO_DriveModeSet       0x000016e9   0xb8  Code  Gb  em_gpio.o [1]
GPIO_ExtIntConfig       0x000017a1  0x114  Code  Gb  em_gpio.o [1]
GPIO_IntClear           0x00000f7d    0x8  Code  Lc  lightsense.o [1]
GPIO_IntConfig          0x00000f85   0x2e  Code  Lc  lightsense.o [1]
GPIO_ODD_IRQHandler     0x000014d7   0x28  Code  Gb  lightsense.o [1]
GPIO_PinModeSet         0x000018b5  0x144  Code  Gb  em_gpio.o [1]
GPIO_PinOutClear        0x000015b1   0x9c  Code  Lc  em_gpio.o [1]
GPIO_PinOutSet          0x0000164d   0x9c  Code  Lc  em_gpio.o [1]
GetProdRev              0x00000e05    0xa  Code  Lc  system_efm32gg.o [1]
LCD_Enable              0x00002f39   0x2a  Code  Lc  em_lcd.o [1]
LCD_Enable              0x00002785   0x2a  Code  Lc  segmentlcd.o [1]
LCD_FreezeEnable        0x000027af   0x1a  Code  Lc  segmentlcd.o [1]
LCD_Init                0x00002f71   0x4a  Code  Gb  em_lcd.o [1]
LCD_IntDisable          0x000027d5   0x10  Code  Lc  segmentlcd.o [1]
LCD_SegmentRangeEnable  0x00002fe1   0x2a  Code  Gb  em_lcd.o [1]
LCD_SegmentSet          0x0000300b  0x16c  Code  Gb  em_lcd.o [1]
LCD_SegmentSetHigh      0x00003245   0xce  Code  Gb  em_lcd.o [1]
LCD_SegmentSetLow       0x00003177   0xce  Code  Gb  em_lcd.o [1]
LCD_SyncBusyDelay       0x000027c9    0xc  Code  Lc  segmentlcd.o [1]
LCD_VBoostSet           0x00003313   0x10  Code  Gb  em_lcd.o [1]
LCD_VLCDSelect          0x00002fbb   0x26  Code  Gb  em_lcd.o [1]
LESENSE_AltExConfig     0x00001f55   0xa6  Code  Gb  em_lesense.o [1]
LESENSE_ChannelAllConfig
                        0x00001df1   0x1c  Code  Gb  em_lesense.o [1]
LESENSE_ChannelConfig   0x00001e0d  0x148  Code  Gb  em_lesense.o [1]
LESENSE_ChannelThresSet
                        0x00002041   0x60  Code  Gb  em_lesense.o [1]
LESENSE_ChannelTimingSet
                        0x00001ffb   0x46  Code  Gb  em_lesense.o [1]
LESENSE_ClkDivSet       0x00001da5   0x4c  Code  Gb  em_lesense.o [1]
LESENSE_DecoderStateSet
                        0x000020a1   0x16  Code  Gb  em_lesense.o [1]
LESENSE_IRQHandler      0x0000144f   0x44  Code  Gb  lightsense.o [1]
LESENSE_Init            0x00001b8f  0x12a  Code  Gb  em_lesense.o [1]
LESENSE_IntClear        0x00000fe7    0x8  Code  Lc  lightsense.o [1]
LESENSE_IntGetEnabled   0x00000fef   0x12  Code  Lc  lightsense.o [1]
LESENSE_Reset           0x000020cf   0xa6  Code  Gb  em_lesense.o [1]
LESENSE_ScanFreqSet     0x00001cb9   0x9c  Code  Gb  em_lesense.o [1]
LESENSE_ScanModeSet     0x00001d55   0x28  Code  Gb  em_lesense.o [1]
LESENSE_ScanStart       0x000020b7   0x18  Code  Gb  em_lesense.o [1]
LESENSE_StartDelaySet   0x00001d7d   0x28  Code  Gb  em_lesense.o [1]
NVIC_DisableIRQ         0x00000f53   0x16  Code  Lc  lightsense.o [1]
NVIC_EnableIRQ          0x00000f3d   0x16  Code  Lc  lightsense.o [1]
PCNT0_IRQHandler        0x00001493   0x24  Code  Gb  lightsense.o [1]
PCNT_CounterReset       0x00002213   0x3a  Code  Gb  em_pcnt.o [1]
PCNT_CounterTopSet      0x0000224d   0xf2  Code  Gb  em_pcnt.o [1]
PCNT_Enable             0x0000233f   0x3e  Code  Gb  em_pcnt.o [1]
PCNT_Init               0x000023cd  0x192  Code  Gb  em_pcnt.o [1]
PCNT_IntClear           0x00001001    0x4  Code  Lc  lightsense.o [1]
PCNT_IntEnable          0x00001005    0x8  Code  Lc  lightsense.o [1]
PCNT_Map                0x000021fb    0xa  Code  Lc  em_pcnt.o [1]
PCNT_PRSInputEnable     0x0000237d   0x50  Code  Gb  em_pcnt.o [1]
PCNT_Sync               0x00002205    0xe  Code  Lc  em_pcnt.o [1]
PCNT_TopSet             0x0000255f   0x70  Code  Gb  em_pcnt.o [1]
PRS_SourceAsyncSignalSet
                        0x000021c1   0x26  Code  Gb  em_prs.o [1]
RTC_CompareSet          0x000025f3   0x2e  Code  Gb  em_rtc.o [1]
RTC_Enable              0x00002621   0x12  Code  Gb  em_rtc.o [1]
RTC_IRQHandler          0x000014b7   0x20  Code  Gb  lightsense.o [1]
RTC_Init                0x00002633   0x2a  Code  Gb  em_rtc.o [1]
RTC_IntClear            0x0000100d    0x8  Code  Lc  lightsense.o [1]
RTC_IntEnable           0x00001015   0x10  Code  Lc  lightsense.o [1]
RTC_IntGet              0x00001025    0x8  Code  Lc  lightsense.o [1]
Region$$Table$$Base     0x00003964          --   Gb  - Linker created -
Region$$Table$$Limit    0x00003974          --   Gb  - Linker created -
SYSTEM_ChipRevisionGet  0x00001a15   0x3a  Code  Gb  em_system.o [1]
SYSTEM_GetFamily        0x00000127    0xc  Code  Lc  em_cmu.o [1]
SYSTEM_GetProdRev       0x0000011b    0xc  Code  Lc  em_cmu.o [1]
SYSTEM_GetProdRev       0x00000f71    0xc  Code  Lc  lightsense.o [1]
SegmentLCD_AllOff       0x000027e5   0xb4  Code  Gb  segmentlcd.o [1]
SegmentLCD_AlphaNumberOff
                        0x00002899   0xaa  Code  Gb  segmentlcd.o [1]
SegmentLCD_Disable      0x00002943   0x22  Code  Gb  segmentlcd.o [1]
SegmentLCD_EnergyMode   0x00002965   0x3a  Code  Gb  segmentlcd.o [1]
SegmentLCD_Init         0x0000299f   0xa2  Code  Gb  segmentlcd.o [1]
SegmentLCD_Number       0x00002a41   0xec  Code  Gb  segmentlcd.o [1]
SegmentLCD_NumberOff    0x00002b2d   0x4a  Code  Gb  segmentlcd.o [1]
SegmentLCD_Symbol       0x00002b77  0x106  Code  Gb  segmentlcd.o [1]
SegmentLCD_Write        0x00002c7d   0x9c  Code  Gb  segmentlcd.o [1]
SystemCoreClock         0x2000000c    0x4  Data  Gb  system_efm32gg.o [1]
SystemCoreClockGet      0x00000e0f   0x1a  Code  Gb  system_efm32gg.o [1]
SystemCoreClockUpdate   0x00002d69    0x8  Code  Lc  em_emu.o [1]
SystemCoreClockUpdate   0x00000f69    0x8  Code  Lc  lightsense.o [1]
SystemHFClockGet        0x00000e2d   0xb2  Code  Gb  system_efm32gg.o [1]
SystemHFXOClock         0x20000000    0x4  Data  Lc  system_efm32gg.o [1]
SystemHFXOClockGet      0x00000edf    0x6  Code  Gb  system_efm32gg.o [1]
SystemInit              0x00000ee5    0x2  Code  Gb  system_efm32gg.o [1]
SystemLFRCOClockGet     0x00000ee7    0x6  Code  Gb  system_efm32gg.o [1]
SystemLFXOClock         0x20000004    0x4  Data  Lc  system_efm32gg.o [1]
SystemLFXOClockGet      0x00000ef3    0x6  Code  Gb  system_efm32gg.o [1]
SystemMaxCoreClockGet   0x00000e29    0x4  Code  Gb  system_efm32gg.o [1]
SystemULFRCOClockGet    0x00000eed    0x6  Code  Gb  system_efm32gg.o [1]
__Vectors               0x00000000          --   Gb  startup_efm32gg.o [1]
__Vectors_End           0x000000dc         Data  Gb  startup_efm32gg.o [1]
__Vectors_Size {Abs}    0x000000dc          --   Gb  startup_efm32gg.o [1]
__cmain                 0x00003975         Code  Gb  cmain.o [4]
__exit                  0x000039a5         Code  Gb  XXexit.o [4]
__iar_data_init3        0x00003919   0x28  Code  Gb  data_init.o [4]
__iar_packbits_init_single3
                        0x000038ad   0x38  Code  Gb  packbits_init_single.o [4]
__iar_program_start     0x00003a05         Code  Gb  cstartup_M.o [4]
__low_level_init        0x0000398f    0x4  Code  Gb  low_level_init.o [3]
__vector_table          0x00000000         Data  Gb  startup_efm32gg.o [1]
__vector_table_0x1c     0x0000001c         Data  Gb  startup_efm32gg.o [1]
_call_main              0x00003981         Code  Gb  cmain.o [4]
_exit                   0x00003999         Code  Gb  cexit.o [4]
_main                   0x0000398b         Code  Gb  cmain.o [4]
abs                     0x00003375    0x8  Code  Gb  abs.o [3]
appModeGlobal           0x20000011    0x1  Data  Lc  lightsense.o [1]
appStateGlobal          0x20000012    0x1  Data  Lc  lightsense.o [1]
auxClkGet               0x000001dd   0x88  Code  Lc  em_cmu.o [1]
dbgClkGet               0x00000265   0x30  Code  Lc  em_cmu.o [1]
emState                 0x00002d87   0xcc  Code  Lc  em_emu.o [1]
emState::cmuStatus      0x20000008    0x4  Data  Lc  em_emu.o [1]
emState::hfClock        0x20000010    0x1  Data  Lc  em_emu.o [1]
eventCounter            0x20000014    0x1  Data  Lc  lightsense.o [1]
exit                    0x00003993    0x4  Code  Gb  exit.o [3]
flashWaitStateControl   0x00000295   0xa2  Code  Lc  em_cmu.o [1]
flashWaitStateMax       0x00000337    0xc  Code  Lc  em_cmu.o [1]
getErrataFixEmuE107En   0x00002e53   0x40  Code  Lc  em_emu.o [1]
getHfLeConfig           0x000001b3   0x2a  Code  Lc  em_cmu.o [1]
lcdInit                 0x000039e0   0x14  Data  Lc  segmentlcd.o [1]
lfClkGet                0x00000343   0xd0  Code  Lc  em_cmu.o [1]
main                    0x000011e7  0x268  Code  Gb  lightsense.o [1]
maxFreqHfle             0x00000133   0x56  Code  Lc  em_cmu.o [1]
secTimerFired           0x20000013    0x1  Data  Lc  lightsense.o [1]
setHfLeConfig           0x00000189   0x2a  Code  Lc  em_cmu.o [1]
setupACMP               0x0000110f   0x2a  Code  Gb  lightsense.o [1]
setupACMP::initACMP     0x000039b0   0x18  Data  Lc  lightsense.o [1]
setupCMU                0x0000102d   0x94  Code  Gb  lightsense.o [1]
setupGPIO               0x000010c1   0x4e  Code  Gb  lightsense.o [1]
setupLESENSE            0x00001139   0x32  Code  Gb  lightsense.o [1]
setupLESENSE::initAltEx
                        0x000038e4   0x34  Data  Lc  lightsense.o [1]
setupLESENSE::initChs   0x000033b4  0x200  Data  Lc  lightsense.o [1]
setupLESENSE::initLESENSE
                        0x0000386c   0x40  Data  Lc  lightsense.o [1]
setupPCNT               0x00001183   0x30  Code  Gb  lightsense.o [1]
setupPCNT::initPCNT     0x000039c8   0x18  Data  Lc  lightsense.o [1]
setupPRS                0x0000116b   0x18  Code  Gb  lightsense.o [1]
setupRTC                0x000011b3   0x34  Code  Gb  lightsense.o [1]
setupRTC::initRTC       0x00003a28    0x4  Data  Lc  lightsense.o [1]
signIndex               0x000033b2    0x2  Data  Lc  segmentlcd.o [1]
strlen                  0x0000337d         Code  Gb  strlen.o [4]
syncReg                 0x00000413   0x16  Code  Lc  em_cmu.o [1]
usbCClkGet              0x00000429   0x3e  Code  Lc  em_cmu.o [1]


[1] = D:\jenkins-slave\workspaces\Executor-0\super\app\mcu_example\EFM32GG_STK3700\lightsense\iar\lightsense\Debug\Obj
[2] = command line
[3] = dl7M_tln.a
[4] = rt7M_tl.a

  13 594 bytes of readonly  code memory
   1 483 bytes of readonly  data memory
   1 045 bytes of readwrite data memory

Errors: none
Warnings: none
