###############################################################################
#
# IAR ELF Linker V7.80.2.11947/W32 for ARM                09/Mar/2017  19:49:04
# Copyright 2007-2016 IAR Systems AB.
#
#    Output file  =  
#        D:\jenkins-slave\workspaces\Executor-0\super\app\mcu_example\EFM32GG_DK3750\peripherals\iar\peripherals\Debug\Exe\peripherals.out
#    Map file     =  
#        D:\jenkins-slave\workspaces\Executor-0\super\app\mcu_example\EFM32GG_DK3750\peripherals\iar\peripherals\Debug\List\peripherals.map
#    Command line =  
#        D:\jenkins-slave\workspaces\Executor-0\super\app\mcu_example\EFM32GG_DK3750\peripherals\iar\peripherals\Debug\Obj\bsp_dk_3201.o
#        D:\jenkins-slave\workspaces\Executor-0\super\app\mcu_example\EFM32GG_DK3750\peripherals\iar\peripherals\Debug\Obj\bsp_trace.o
#        D:\jenkins-slave\workspaces\Executor-0\super\app\mcu_example\EFM32GG_DK3750\peripherals\iar\peripherals\Debug\Obj\em_assert.o
#        D:\jenkins-slave\workspaces\Executor-0\super\app\mcu_example\EFM32GG_DK3750\peripherals\iar\peripherals\Debug\Obj\em_cmu.o
#        D:\jenkins-slave\workspaces\Executor-0\super\app\mcu_example\EFM32GG_DK3750\peripherals\iar\peripherals\Debug\Obj\em_ebi.o
#        D:\jenkins-slave\workspaces\Executor-0\super\app\mcu_example\EFM32GG_DK3750\peripherals\iar\peripherals\Debug\Obj\em_emu.o
#        D:\jenkins-slave\workspaces\Executor-0\super\app\mcu_example\EFM32GG_DK3750\peripherals\iar\peripherals\Debug\Obj\em_gpio.o
#        D:\jenkins-slave\workspaces\Executor-0\super\app\mcu_example\EFM32GG_DK3750\peripherals\iar\peripherals\Debug\Obj\em_system.o
#        D:\jenkins-slave\workspaces\Executor-0\super\app\mcu_example\EFM32GG_DK3750\peripherals\iar\peripherals\Debug\Obj\em_usart.o
#        D:\jenkins-slave\workspaces\Executor-0\super\app\mcu_example\EFM32GG_DK3750\peripherals\iar\peripherals\Debug\Obj\periph.o
#        D:\jenkins-slave\workspaces\Executor-0\super\app\mcu_example\EFM32GG_DK3750\peripherals\iar\peripherals\Debug\Obj\startup_efm32gg.o
#        D:\jenkins-slave\workspaces\Executor-0\super\app\mcu_example\EFM32GG_DK3750\peripherals\iar\peripherals\Debug\Obj\system_efm32gg.o
#        --redirect _Printf=_PrintfFull --redirect _Scanf=_ScanfFull -o
#        D:\jenkins-slave\workspaces\Executor-0\super\app\mcu_example\EFM32GG_DK3750\peripherals\iar\peripherals\Debug\Exe\peripherals.out
#        --map
#        D:\jenkins-slave\workspaces\Executor-0\super\app\mcu_example\EFM32GG_DK3750\peripherals\iar\peripherals\Debug\List\peripherals.map
#        --config
#        T:\iar_ew_7802_win32_rel_1\arm\config\linker\SiliconLaboratories\EFM32GG990F1024.icf
#        --entry __iar_program_start --vfe
#
###############################################################################

*******************************************************************************
*** RUNTIME MODEL ATTRIBUTES
***

CppFlavor       = *
__SystemLibrary = DLib


*******************************************************************************
*** PLACEMENT SUMMARY
***

"A0":  place at 0x00000000 { ro section .intvec };
"P1":  place in [from 0x00000000 to 0x000fffff] { ro };
"P2":  place in [from 0x20000000 to 0x2001ffff] { rw, block CSTACK, block HEAP };
initialize by copy { rw };
 { section .intvec };

  Section            Kind        Address    Size  Object
  -------            ----        -------    ----  ------
"A0":                                       0xdc
  .intvec            ro code  0x00000000    0xdc  startup_efm32gg.o [1]
                            - 0x000000dc    0xdc

"P1":                                     0x26e1
  .text              ro code  0x000000dc   0xa20  bsp_dk_3201.o [1]
  .text              ro code  0x00000afc     0x2  em_assert.o [1]
  .text              ro code  0x00000b00   0x730  em_cmu.o [1]
  .text              ro code  0x00001230   0x2b0  em_gpio.o [1]
  .text              ro code  0x000014e0    0x56  ABImemcpy_unaligned.o [4]
  .text              ro code  0x00001538   0x7b8  em_ebi.o [1]
  .text              ro code  0x00001cf0   0x194  em_usart.o [1]
  .text              ro code  0x00001e84   0x12c  system_efm32gg.o [1]
  .text              ro code  0x00001fb0   0x238  periph.o [1]
  .text              ro code  0x000021e8   0x118  bsp_trace.o [1]
  .rodata            const    0x00002300    0x88  bsp_dk_3201.o [1]
  .rodata            const    0x00002388    0x88  em_cmu.o [1]
  .rodata            const    0x00002410    0x88  em_gpio.o [1]
  .rodata            const    0x00002498    0x50  bsp_dk_3201.o [1]
  .rodata            const    0x000024e8    0x4c  em_cmu.o [1]
  .rodata            const    0x00002534    0x4c  em_ebi.o [1]
  .rodata            const    0x00002580    0x4c  em_gpio.o [1]
  .rodata            const    0x000025cc    0x4c  em_usart.o [1]
  .text              ro code  0x00002618    0x38  packbits_init_single.o [4]
  .text              ro code  0x00002650    0x28  data_init.o [4]
  .iar.init_table    const    0x00002678    0x10  - Linker created -
  .text              ro code  0x00002688    0x1a  cmain.o [4]
  .text              ro code  0x000026a2     0x4  low_level_init.o [3]
  .text              ro code  0x000026a6     0x4  exit.o [3]
  .text              ro code  0x000026ac     0xa  cexit.o [4]
  .text              ro code  0x000026b8     0xc  XXexit.o [4]
  .rodata            const    0x000026c4    0x18  bsp_dk_3201.o [1]
  .text              ro code  0x000026dc    0x10  startup_efm32gg.o [1]
  .text              ro code  0x000026ec     0xc  cstartup_M.o [4]
  .text              ro code  0x000026f8     0x4  startup_efm32gg.o [1]
  .text              ro code  0x000026fc     0x4  startup_efm32gg.o [1]
  .text              ro code  0x00002700     0x4  startup_efm32gg.o [1]
  .text              ro code  0x00002704     0x4  startup_efm32gg.o [1]
  .text              ro code  0x00002708     0x4  startup_efm32gg.o [1]
  .text              ro code  0x0000270c     0x4  startup_efm32gg.o [1]
  .text              ro code  0x00002710     0x4  startup_efm32gg.o [1]
  .text              ro code  0x00002714     0x4  startup_efm32gg.o [1]
  .text              ro code  0x00002718     0x4  startup_efm32gg.o [1]
  .text              ro code  0x0000271c     0x4  startup_efm32gg.o [1]
  .text              ro code  0x00002720     0x4  startup_efm32gg.o [1]
  .text              ro code  0x00002724     0x4  startup_efm32gg.o [1]
  .text              ro code  0x00002728     0x4  startup_efm32gg.o [1]
  .text              ro code  0x0000272c     0x4  startup_efm32gg.o [1]
  .text              ro code  0x00002730     0x4  startup_efm32gg.o [1]
  .text              ro code  0x00002734     0x4  startup_efm32gg.o [1]
  .text              ro code  0x00002738     0x4  startup_efm32gg.o [1]
  .text              ro code  0x0000273c     0x4  startup_efm32gg.o [1]
  .text              ro code  0x00002740     0x4  startup_efm32gg.o [1]
  .text              ro code  0x00002744     0x4  startup_efm32gg.o [1]
  .text              ro code  0x00002748     0x4  startup_efm32gg.o [1]
  .text              ro code  0x0000274c     0x4  startup_efm32gg.o [1]
  .text              ro code  0x00002750     0x4  startup_efm32gg.o [1]
  .text              ro code  0x00002754     0x4  startup_efm32gg.o [1]
  .text              ro code  0x00002758     0x4  startup_efm32gg.o [1]
  .text              ro code  0x0000275c     0x4  startup_efm32gg.o [1]
  .text              ro code  0x00002760     0x4  startup_efm32gg.o [1]
  .text              ro code  0x00002764     0x4  startup_efm32gg.o [1]
  .text              ro code  0x00002768     0x4  startup_efm32gg.o [1]
  .text              ro code  0x0000276c     0x4  startup_efm32gg.o [1]
  .text              ro code  0x00002770     0x4  startup_efm32gg.o [1]
  .text              ro code  0x00002774     0x4  startup_efm32gg.o [1]
  .text              ro code  0x00002778     0x4  startup_efm32gg.o [1]
  .text              ro code  0x0000277c     0x4  startup_efm32gg.o [1]
  .text              ro code  0x00002780     0x4  startup_efm32gg.o [1]
  .text              ro code  0x00002784     0x4  startup_efm32gg.o [1]
  .text              ro code  0x00002788     0x4  startup_efm32gg.o [1]
  .text              ro code  0x0000278c     0x4  startup_efm32gg.o [1]
  .text              ro code  0x00002790     0x4  startup_efm32gg.o [1]
  .text              ro code  0x00002794     0x4  startup_efm32gg.o [1]
  .text              ro code  0x00002798     0x4  startup_efm32gg.o [1]
  .text              ro code  0x0000279c     0x4  startup_efm32gg.o [1]
  .text              ro code  0x000027a0     0x4  startup_efm32gg.o [1]
  .text              ro code  0x000027a4     0x4  startup_efm32gg.o [1]
  .text              ro code  0x000027a8     0x4  startup_efm32gg.o [1]
  .text              ro code  0x000027ac     0x4  startup_efm32gg.o [1]
  .text              ro code  0x000027b0     0x4  startup_efm32gg.o [1]
  .rodata            const    0x000027b4     0x0  packbits_init_single.o [4]
  Initializer bytes  const    0x000027b4     0x9  <for P2-1>
                            - 0x000027bd  0x26e1

"P2", part 1 of 2:                          0x1b
  P2-1                        0x20000000    0x1b  <Init block>
    .data            inited   0x20000000     0x4  system_efm32gg.o [1]
    .data            inited   0x20000004     0x4  system_efm32gg.o [1]
    .bss             inited   0x20000008     0x4  bsp_dk_3201.o [1]
    .bss             inited   0x2000000c     0x4  bsp_dk_3201.o [1]
    .bss             inited   0x20000010     0x4  periph.o [1]
    .bss             inited   0x20000014     0x4  system_efm32gg.o [1]
    .bss             inited   0x20000018     0x2  bsp_dk_3201.o [1]
    .bss             inited   0x2000001a     0x1  bsp_dk_3201.o [1]
                            - 0x2000001b    0x1b

"P2", part 2 of 2:                         0x400
  CSTACK                      0x20000020   0x400  <Block>
    CSTACK           uninit   0x20000020   0x400  <Block tail>
                            - 0x20000420   0x400


*******************************************************************************
*** INIT TABLE
***

          Address     Size
          -------     ----
Copy/packbits (__iar_packbits_init_single3)
    1 source range, total size 0x9 (33% of destination):
          0x000027b4   0x9
    1 destination range, total size 0x1b:
          0x20000000  0x1b



*******************************************************************************
*** MODULE SUMMARY
***

    Module                  ro code  ro data  rw data
    ------                  -------  -------  -------
D:\jenkins-slave\workspaces\Executor-0\super\app\mcu_example\EFM32GG_DK3750\peripherals\iar\peripherals\Debug\Obj: [1]
    bsp_dk_3201.o             2 592      244       11
    bsp_trace.o                 280
    em_assert.o                   2
    em_cmu.o                  1 840      212
    em_ebi.o                  1 976       76
    em_gpio.o                   688      212
    em_usart.o                  404       76
    periph.o                    568        1        4
    startup_efm32gg.o           424
    system_efm32gg.o            300        4       12
    -------------------------------------------------
    Total:                    9 074      825       27

command line: [2]
    -------------------------------------------------
    Total:

dl7M_tln.a: [3]
    exit.o                        4
    low_level_init.o              4
    -------------------------------------------------
    Total:                        8

rt7M_tl.a: [4]
    ABImemcpy_unaligned.o        86
    XXexit.o                     12
    cexit.o                      10
    cmain.o                      26
    cstartup_M.o                 12
    data_init.o                  40
    packbits_init_single.o       56
    -------------------------------------------------
    Total:                      242

    Gaps                          8
    Linker created                        16    1 024
-----------------------------------------------------
    Grand Total:              9 332      841    1 051


*******************************************************************************
*** ENTRY LIST
***

Entry                      Address   Size  Type      Object
-----                      -------   ----  ----      ------
.iar.init_table$$Base   0x00002678          --   Gb  - Linker created -
.iar.init_table$$Limit  0x00002688          --   Gb  - Linker created -
?main                   0x00002689         Code  Gb  cmain.o [4]
BSP_BusControlModeSet   0x0000028b   0x9c  Code  Gb  bsp_dk_3201.o [1]
BSP_EbiExtendedAddressRange
                        0x00000327   0x24  Code  Gb  bsp_dk_3201.o [1]
BSP_Init                0x00000231   0x5a  Code  Gb  bsp_dk_3201.o [1]
BSP_PeripheralAccess    0x0000034b  0x236  Code  Gb  bsp_dk_3201.o [1]
BSP_RegisterRead        0x00000581   0x1a  Code  Gb  bsp_dk_3201.o [1]
BSP_RegisterWrite       0x0000059b   0x22  Code  Gb  bsp_dk_3201.o [1]
BSP_TraceProfilerSetup  0x000022e9   0x18  Code  Gb  bsp_trace.o [1]
BSP_TraceSwoSetup       0x000021e9   0xac  Code  Gb  bsp_trace.o [1]
BUS_RegBitRead          0x00000b0f   0x10  Code  Lc  em_cmu.o [1]
BUS_RegBitWrite         0x00000b01    0xe  Code  Lc  em_cmu.o [1]
BUS_RegBitWrite         0x00001539    0xe  Code  Lc  em_ebi.o [1]
BUS_RegMaskedWrite      0x00001cf1    0xa  Code  Lc  em_usart.o [1]
CMU_ClockEnable         0x00000e2d   0xa6  Code  Gb  em_cmu.o [1]
CMU_ClockFreqGet        0x00000ee9  0x188  Code  Gb  em_cmu.o [1]
CMU_ClockSelectGet      0x000010ad  0x134  Code  Gb  em_cmu.o [1]
CMU_DivToLog2           0x00000b1f   0x28  Code  Lc  em_cmu.o [1]
CSTACK$$Base            0x20000020          --   Gb  - Linker created -
CSTACK$$Limit           0x20000420          --   Gb  - Linker created -
Delay                   0x00002013   0x12  Code  Gb  periph.o [1]
EBI_BankAddressTimingConfig
                        0x00001a7b   0x5a  Code  Gb  em_ebi.o [1]
EBI_BankAddressTimingSet
                        0x00001ad5   0x86  Code  Gb  em_ebi.o [1]
EBI_BankPolaritySet     0x00001b65  0x12a  Code  Gb  em_ebi.o [1]
EBI_BankReadTimingConfig
                        0x00001797   0xd8  Code  Gb  em_ebi.o [1]
EBI_BankReadTimingSet   0x0000186f   0xc6  Code  Gb  em_ebi.o [1]
EBI_BankWriteTimingConfig
                        0x00001935   0x9e  Code  Gb  em_ebi.o [1]
EBI_BankWriteTimingSet  0x000019d3   0xa8  Code  Gb  em_ebi.o [1]
EBI_ChipSelectEnable    0x00001747   0x50  Code  Gb  em_ebi.o [1]
EBI_Init                0x00001547  0x200  Code  Gb  em_ebi.o [1]
EbiInit                 0x000005bd  0x30a  Code  Lc  bsp_dk_3201.o [1]
GPIO_PinModeSet         0x00001385  0x14e  Code  Gb  em_gpio.o [1]
GPIO_PinOutClear        0x000000dd   0xaa  Code  Lc  bsp_dk_3201.o [1]
GPIO_PinOutClear        0x00001231   0xaa  Code  Lc  em_gpio.o [1]
GPIO_PinOutSet          0x00000187   0xaa  Code  Lc  bsp_dk_3201.o [1]
GPIO_PinOutSet          0x000012db   0xaa  Code  Lc  em_gpio.o [1]
GetProdRev              0x00001e85    0xa  Code  Lc  system_efm32gg.o [1]
NVIC_SetPriority        0x00001fb1   0x26  Code  Lc  periph.o [1]
Region$$Table$$Base     0x00002678          --   Gb  - Linker created -
Region$$Table$$Limit    0x00002688          --   Gb  - Linker created -
SYSTEM_GetFamily        0x00000b53    0xc  Code  Lc  em_cmu.o [1]
SYSTEM_GetProdRev       0x00000b47    0xc  Code  Lc  em_cmu.o [1]
SpiBcAccess             0x000008c7   0x60  Code  Lc  bsp_dk_3201.o [1]
SpiBcInit               0x00000927   0x60  Code  Lc  bsp_dk_3201.o [1]
SpiControl              0x00000987   0x44  Code  Lc  bsp_dk_3201.o [1]
SpiInit                 0x000009cb   0x30  Code  Lc  bsp_dk_3201.o [1]
SpiRegisterRead         0x000009fb   0x56  Code  Lc  bsp_dk_3201.o [1]
SpiRegisterWrite        0x00000a59   0x48  Code  Lc  bsp_dk_3201.o [1]
SysTick_Config          0x00001fd7   0x30  Code  Lc  periph.o [1]
SysTick_Handler         0x00002007    0xc  Code  Gb  periph.o [1]
SystemCoreClock         0x20000014    0x4  Data  Gb  system_efm32gg.o [1]
SystemCoreClockGet      0x00001e8f   0x1a  Code  Gb  system_efm32gg.o [1]
SystemHFClockGet        0x00001ea9   0xb2  Code  Gb  system_efm32gg.o [1]
SystemHFXOClock         0x20000000    0x4  Data  Lc  system_efm32gg.o [1]
SystemInit              0x00001f5b    0x2  Code  Gb  system_efm32gg.o [1]
SystemLFRCOClockGet     0x00001f5d    0x6  Code  Gb  system_efm32gg.o [1]
SystemLFXOClock         0x20000004    0x4  Data  Lc  system_efm32gg.o [1]
SystemLFXOClockGet      0x00001f69    0x6  Code  Gb  system_efm32gg.o [1]
SystemULFRCOClockGet    0x00001f63    0x6  Code  Gb  system_efm32gg.o [1]
USART_BaudrateSyncSet   0x00001cfb   0x54  Code  Gb  em_usart.o [1]
USART_InitSync          0x00001d4f   0x8a  Code  Gb  em_usart.o [1]
USART_Reset             0x00001dd9   0x72  Code  Gb  em_usart.o [1]
USART_Rx                0x00001e6d    0xc  Code  Gb  em_usart.o [1]
USART_Tx                0x00001e79    0xc  Code  Gb  em_usart.o [1]
__Vectors               0x00000000          --   Gb  startup_efm32gg.o [1]
__Vectors_End           0x000000dc         Data  Gb  startup_efm32gg.o [1]
__Vectors_Size {Abs}    0x000000dc          --   Gb  startup_efm32gg.o [1]
__cmain                 0x00002689         Code  Gb  cmain.o [4]
__exit                  0x000026b9         Code  Gb  XXexit.o [4]
__iar_data_init3        0x00002651   0x28  Code  Gb  data_init.o [4]
__iar_packbits_init_single3
                        0x00002619   0x38  Code  Gb  packbits_init_single.o [4]
__iar_program_start     0x000026ed         Code  Gb  cstartup_M.o [4]
__iar_unaligned___aeabi_memcpy4
                        0x000014e1         Code  Gb  ABImemcpy_unaligned.o [4]
__iar_unaligned___aeabi_memcpy8
                        0x000014e1         Code  Gb  ABImemcpy_unaligned.o [4]
__low_level_init        0x000026a3    0x4  Code  Gb  low_level_init.o [3]
__vector_table          0x00000000         Data  Gb  startup_efm32gg.o [1]
__vector_table_0x1c     0x0000001c         Data  Gb  startup_efm32gg.o [1]
_call_main              0x00002695         Code  Gb  cmain.o [4]
_exit                   0x000026ad         Code  Gb  cexit.o [4]
_main                   0x0000269f         Code  Gb  cmain.o [4]
assertEFM               0x00000afd    0x2  Code  Gb  em_assert.o [1]
auxClkGet               0x00000c15   0x94  Code  Lc  em_cmu.o [1]
bcFwVersion             0x20000018    0x2  Data  Lc  bsp_dk_3201.o [1]
bspOperationMode        0x20000008    0x4  Data  Lc  bsp_dk_3201.o [1]
busMode                 0x2000001a    0x1  Data  Lc  bsp_dk_3201.o [1]
dbgClkGet               0x00000ca9   0x3c  Code  Lc  em_cmu.o [1]
exit                    0x000026a7    0x4  Code  Gb  exit.o [3]
getHfLeConfig           0x00000be9   0x2c  Code  Lc  em_cmu.o [1]
lastAddr                0x2000000c    0x4  Data  Lc  bsp_dk_3201.o [1]
lfClkGet                0x00000ce5   0xf4  Code  Lc  em_cmu.o [1]
main                    0x00002025  0x1a6  Code  Gb  periph.o [1]
maxFreqHfle             0x00000b5f   0x60  Code  Lc  em_cmu.o [1]
msTicks                 0x20000010    0x4  Data  Gb  periph.o [1]
setHfLeConfig           0x00000bbf   0x2a  Code  Lc  em_cmu.o [1]
syncReg                 0x00000dd9   0x16  Code  Lc  em_cmu.o [1]
usbCClkGet              0x00000def   0x3e  Code  Lc  em_cmu.o [1]


[1] = D:\jenkins-slave\workspaces\Executor-0\super\app\mcu_example\EFM32GG_DK3750\peripherals\iar\peripherals\Debug\Obj
[2] = command line
[3] = dl7M_tln.a
[4] = rt7M_tl.a

  9 332 bytes of readonly  code memory
    841 bytes of readonly  data memory
  1 051 bytes of readwrite data memory

Errors: none
Warnings: none
