###############################################################################
#
# IAR ELF Linker V7.80.2.11947/W32 for ARM                09/Mar/2017  20:15:34
# Copyright 2007-2016 IAR Systems AB.
#
#    Output file  =  
#        D:\jenkins-slave\workspaces\Executor-0\super\app\mcu_example\EFM32ZG_STK3200\cpt007b\iar\cpt007b_demo\Debug\Exe\cpt007b_demo.out
#    Map file     =  
#        D:\jenkins-slave\workspaces\Executor-0\super\app\mcu_example\EFM32ZG_STK3200\cpt007b\iar\cpt007b_demo\Debug\List\cpt007b_demo.map
#    Command line =  
#        D:\jenkins-slave\workspaces\Executor-0\super\app\mcu_example\EFM32ZG_STK3200\cpt007b\iar\cpt007b_demo\Debug\Obj\cpt007b_demo.o
#        D:\jenkins-slave\workspaces\Executor-0\super\app\mcu_example\EFM32ZG_STK3200\cpt007b\iar\cpt007b_demo\Debug\Obj\display.o
#        D:\jenkins-slave\workspaces\Executor-0\super\app\mcu_example\EFM32ZG_STK3200\cpt007b\iar\cpt007b_demo\Debug\Obj\displayls013b7dh03.o
#        D:\jenkins-slave\workspaces\Executor-0\super\app\mcu_example\EFM32ZG_STK3200\cpt007b\iar\cpt007b_demo\Debug\Obj\displaypalemlib.o
#        D:\jenkins-slave\workspaces\Executor-0\super\app\mcu_example\EFM32ZG_STK3200\cpt007b\iar\cpt007b_demo\Debug\Obj\em_assert.o
#        D:\jenkins-slave\workspaces\Executor-0\super\app\mcu_example\EFM32ZG_STK3200\cpt007b\iar\cpt007b_demo\Debug\Obj\em_cmu.o
#        D:\jenkins-slave\workspaces\Executor-0\super\app\mcu_example\EFM32ZG_STK3200\cpt007b\iar\cpt007b_demo\Debug\Obj\em_core.o
#        D:\jenkins-slave\workspaces\Executor-0\super\app\mcu_example\EFM32ZG_STK3200\cpt007b\iar\cpt007b_demo\Debug\Obj\em_emu.o
#        D:\jenkins-slave\workspaces\Executor-0\super\app\mcu_example\EFM32ZG_STK3200\cpt007b\iar\cpt007b_demo\Debug\Obj\em_gpio.o
#        D:\jenkins-slave\workspaces\Executor-0\super\app\mcu_example\EFM32ZG_STK3200\cpt007b\iar\cpt007b_demo\Debug\Obj\em_lcd.o
#        D:\jenkins-slave\workspaces\Executor-0\super\app\mcu_example\EFM32ZG_STK3200\cpt007b\iar\cpt007b_demo\Debug\Obj\em_prs.o
#        D:\jenkins-slave\workspaces\Executor-0\super\app\mcu_example\EFM32ZG_STK3200\cpt007b\iar\cpt007b_demo\Debug\Obj\em_rtc.o
#        D:\jenkins-slave\workspaces\Executor-0\super\app\mcu_example\EFM32ZG_STK3200\cpt007b\iar\cpt007b_demo\Debug\Obj\em_system.o
#        D:\jenkins-slave\workspaces\Executor-0\super\app\mcu_example\EFM32ZG_STK3200\cpt007b\iar\cpt007b_demo\Debug\Obj\em_usart.o
#        D:\jenkins-slave\workspaces\Executor-0\super\app\mcu_example\EFM32ZG_STK3200\cpt007b\iar\cpt007b_demo\Debug\Obj\gpio.o
#        D:\jenkins-slave\workspaces\Executor-0\super\app\mcu_example\EFM32ZG_STK3200\cpt007b\iar\cpt007b_demo\Debug\Obj\lcd.o
#        D:\jenkins-slave\workspaces\Executor-0\super\app\mcu_example\EFM32ZG_STK3200\cpt007b\iar\cpt007b_demo\Debug\Obj\render.o
#        D:\jenkins-slave\workspaces\Executor-0\super\app\mcu_example\EFM32ZG_STK3200\cpt007b\iar\cpt007b_demo\Debug\Obj\startup_efm32zg.o
#        D:\jenkins-slave\workspaces\Executor-0\super\app\mcu_example\EFM32ZG_STK3200\cpt007b\iar\cpt007b_demo\Debug\Obj\system_efm32zg.o
#        D:\jenkins-slave\workspaces\Executor-0\super\app\mcu_example\EFM32ZG_STK3200\cpt007b\iar\cpt007b_demo\Debug\Obj\udelay.o
#        --redirect _Printf=_PrintfFull --redirect _Scanf=_ScanfFull -o
#        D:\jenkins-slave\workspaces\Executor-0\super\app\mcu_example\EFM32ZG_STK3200\cpt007b\iar\cpt007b_demo\Debug\Exe\cpt007b_demo.out
#        --map
#        D:\jenkins-slave\workspaces\Executor-0\super\app\mcu_example\EFM32ZG_STK3200\cpt007b\iar\cpt007b_demo\Debug\List\cpt007b_demo.map
#        --config
#        T:\iar_ew_7802_win32_rel_1\arm\config\linker\SiliconLaboratories\EFM32ZG222F32.icf
#        --entry __iar_program_start --vfe
#
###############################################################################

*******************************************************************************
*** RUNTIME MODEL ATTRIBUTES
***

CppFlavor       = *
__SystemLibrary = DLib


*******************************************************************************
*** PLACEMENT SUMMARY
***

"A0":  place at 0x00000000 { ro section .intvec };
"P1":  place in [from 0x00000000 to 0x00007fff] { ro };
"P2":  place in [from 0x20000000 to 0x20000fff] { rw, block CSTACK, block HEAP };
initialize by copy { rw };
 { section .intvec };

  Section            Kind        Address    Size  Object
  -------            ----        -------    ----  ------
"A0":                                       0x8c
  .intvec            ro code  0x00000000    0x8c  startup_efm32zg.o [1]
                            - 0x0000008c    0x8c

"P1":                                     0x2503
  .text              ro code  0x0000008c   0x93c  em_cmu.o [1]
  .text              ro code  0x000009c8     0x4  em_assert.o [1]
  .text              ro code  0x000009cc    0xf0  system_efm32zg.o [1]
  .text              ro code  0x00000abc   0x358  displaypalemlib.o [1]
  .text              ro code  0x00000e14    0x5c  ABImemcpy.o [4]
  .text              ro code  0x00000e70   0x178  em_usart.o [1]
  .text              ro code  0x00000fe8   0x290  udelay.o [1]
  .text              ro code  0x00001278   0x2a8  em_gpio.o [1]
  .text              ro code  0x00001520    0x3c  em_prs.o [1]
  .text              ro code  0x0000155c    0xd0  em_rtc.o [1]
  .text              ro code  0x0000162c    0xe0  I32DivModFast.o [4]
  .text              ro code  0x0000170c     0x8  em_core.o [1]
  .text              ro code  0x00001714     0xa  em_core.o [1]
  .text              ro code  0x0000171e    0x7e  lz77_init_single.o [4]
  .text              ro code  0x0000179c     0x2  IntDivZer.o [4]
  .text              ro code  0x0000179e     0x2  startup_efm32zg.o [1]
  .text              ro code  0x000017a0   0x2a0  render.o [1]
  .text              ro code  0x00001a40   0x200  displayls013b7dh03.o [1]
  .text              ro code  0x00001c40    0xd4  display.o [1]
  .text              ro code  0x00001d14    0x50  ABImemset.o [4]
  .text              ro code  0x00001d64   0x174  lcd.o [1]
  .text              ro code  0x00001ed8   0x144  gpio.o [1]
  .rodata            const    0x0000201c    0x88  displaypalemlib.o [1]
  .rodata            const    0x000020a4    0x88  em_gpio.o [1]
  .rodata            const    0x0000212c    0x84  em_cmu.o [1]
  .rodata            const    0x000021b0    0x4c  em_cmu.o [1]
  .rodata            const    0x000021fc    0x4c  em_gpio.o [1]
  .rodata            const    0x00002248    0x4c  em_prs.o [1]
  .rodata            const    0x00002294    0x4c  em_rtc.o [1]
  .rodata            const    0x000022e0    0x4c  em_usart.o [1]
  .text              ro code  0x0000232c    0x3c  zero_init3.o [4]
  .text              ro code  0x00002368    0x36  cpt007b_demo.o [1]
  .text              ro code  0x0000239e     0x2  startup_efm32zg.o [1]
  .text              ro code  0x000023a0    0x28  data_init.o [4]
  .iar.init_table    const    0x000023c8    0x20  - Linker created -
  .rodata            const    0x000023e8    0x1c  lcd.o [1]
  .text              ro code  0x00002404    0x1a  cmain.o [4]
  .text              ro code  0x0000241e     0x4  low_level_init.o [3]
  .text              ro code  0x00002422     0x8  exit.o [3]
  .text              ro code  0x0000242a     0x2  startup_efm32zg.o [1]
  .text              ro code  0x0000242c     0xa  cexit.o [4]
  .text              ro code  0x00002436     0x2  startup_efm32zg.o [1]
  .text              ro code  0x00002438     0xc  XXexit.o [4]
  .rodata            const    0x00002444    0x18  displayls013b7dh03.o [1]
  .rodata            const    0x0000245c    0x18  displaypalemlib.o [1]
  .text              ro code  0x00002474    0x10  startup_efm32zg.o [1]
  .text              ro code  0x00002484     0xc  cstartup_M.o [4]
  .rodata            const    0x00002490     0x8  lcd.o [1]
  .rodata            const    0x00002498     0x4  displaypalemlib.o [1]
  .rodata            const    0x0000249c     0x4  udelay.o [1]
  .text              ro code  0x000024a0     0x2  startup_efm32zg.o [1]
  .text              ro code  0x000024a2     0x2  startup_efm32zg.o [1]
  .text              ro code  0x000024a4     0x2  startup_efm32zg.o [1]
  .text              ro code  0x000024a6     0x2  startup_efm32zg.o [1]
  .text              ro code  0x000024a8     0x2  startup_efm32zg.o [1]
  .text              ro code  0x000024aa     0x2  startup_efm32zg.o [1]
  .text              ro code  0x000024ac     0x2  startup_efm32zg.o [1]
  .text              ro code  0x000024ae     0x2  startup_efm32zg.o [1]
  .text              ro code  0x000024b0     0x2  startup_efm32zg.o [1]
  .text              ro code  0x000024b2     0x2  startup_efm32zg.o [1]
  .text              ro code  0x000024b4     0x2  startup_efm32zg.o [1]
  .text              ro code  0x000024b6     0x2  startup_efm32zg.o [1]
  .text              ro code  0x000024b8     0x2  startup_efm32zg.o [1]
  .text              ro code  0x000024ba     0x2  startup_efm32zg.o [1]
  .text              ro code  0x000024bc     0x2  startup_efm32zg.o [1]
  .text              ro code  0x000024be     0x2  startup_efm32zg.o [1]
  .text              ro code  0x000024c0     0x2  startup_efm32zg.o [1]
  .text              ro code  0x000024c2     0x2  startup_efm32zg.o [1]
  .rodata            const    0x000024c4     0x0  zero_init3.o [4]
  .rodata            const    0x000024c4     0x0  lz77_init_single.o [4]
  Initializer bytes  const    0x000024c4    0xcb  <for P2-1>
                            - 0x0000258f  0x2503

"P2", part 1 of 3:                         0x19c
  P2-1                        0x20000000   0x19c  <Init block>
    .data            inited   0x20000000     0x8  display.o [1]
    .data            inited   0x20000008    0x80  render.o [1]
    .data            inited   0x20000088    0x80  render.o [1]
    .data            inited   0x20000108    0x80  render.o [1]
    .data            inited   0x20000188     0x4  render.o [1]
    .data            inited   0x2000018c     0x4  render.o [1]
    .data            inited   0x20000190     0x4  system_efm32zg.o [1]
    .data            inited   0x20000194     0x4  system_efm32zg.o [1]
    .data            inited   0x20000198     0x4  udelay.o [1]
                            - 0x2000019c   0x19c

"P2", part 2 of 3:                         0x400
  CSTACK                      0x200001a0   0x400  <Block>
    CSTACK           uninit   0x200001a0   0x400  <Block tail>
                            - 0x200005a0   0x400

"P2", part 3 of 3:                         0x8e4
  .bss               zero     0x200005a0   0x800  render.o [1]
  .bss               zero     0x20000da0    0x60  lcd.o [1]
  .bss               zero     0x20000e00    0x2c  display.o [1]
  .bss               zero     0x20000e2c    0x2c  lcd.o [1]
  .bss               zero     0x20000e58    0x20  render.o [1]
  .bss               zero     0x20000e78     0x4  display.o [1]
  .bss               zero     0x20000e7c     0x4  system_efm32zg.o [1]
  .bss               zero     0x20000e80     0x1  display.o [1]
  .bss               zero     0x20000e81     0x1  displayls013b7dh03.o [1]
  .bss               zero     0x20000e82     0x1  gpio.o [1]
  .bss               zero     0x20000e83     0x1  gpio.o [1]
                            - 0x20000e84   0x8e4


*******************************************************************************
*** INIT TABLE
***

          Address     Size
          -------     ----
Zero (__iar_zero_init3)
    1 destination range, total size 0x8e4:
          0x200005a0  0x8e4

Copy/lz77 (__iar_lz77_init_single3)
    1 source range, total size 0xcb (49% of destination):
          0x000024c4   0xcb
    1 destination range, total size 0x19c:
          0x20000000  0x19c



*******************************************************************************
*** MODULE SUMMARY
***

    Module                ro code  ro data  rw data
    ------                -------  -------  -------
D:\jenkins-slave\workspaces\Executor-0\super\app\mcu_example\EFM32ZG_STK3200\cpt007b\iar\cpt007b_demo\Debug\Obj: [1]
    cpt007b_demo.o             54
    display.o                 212        3       57
    displayls013b7dh03.o      512       24        1
    displaypalemlib.o         856      164
    em_assert.o                 4
    em_cmu.o                2 364      208
    em_core.o                  18
    em_gpio.o                 680      212
    em_prs.o                   60       76
    em_rtc.o                  208       76
    em_usart.o                376       76
    gpio.o                    324                 2
    lcd.o                     372       36      140
    render.o                  672      194    2 472
    startup_efm32zg.o         200
    system_efm32zg.o          240        4       12
    udelay.o                  656        6        4
    -----------------------------------------------
    Total:                  7 808    1 079    2 688

command line: [2]
    -----------------------------------------------
    Total:

dl6M_tln.a: [3]
    exit.o                      8
    low_level_init.o            4
    -----------------------------------------------
    Total:                     12

rt6M_tl.a: [4]
    ABImemcpy.o                92
    ABImemset.o                80
    I32DivModFast.o           224
    IntDivZer.o                 2
    XXexit.o                   12
    cexit.o                    10
    cmain.o                    26
    cstartup_M.o               12
    data_init.o                40
    lz77_init_single.o        126
    zero_init3.o               60
    -----------------------------------------------
    Total:                    684

    Linker created                      32    1 024
---------------------------------------------------
    Grand Total:            8 504    1 111    3 712


*******************************************************************************
*** ENTRY LIST
***

Entry                      Address   Size  Type      Object
-----                      -------   ----  ----      ------
.iar.init_table$$Base   0x000023c8          --   Gb  - Linker created -
.iar.init_table$$Limit  0x000023e8          --   Gb  - Linker created -
?main                   0x00002405         Code  Gb  cmain.o [4]
BUS_RegBitRead          0x000000bf    0xc  Code  Lc  em_cmu.o [1]
BUS_RegBitWrite         0x000000a3   0x1c  Code  Lc  em_cmu.o [1]
BUS_RegBitWrite         0x0000155d   0x1c  Code  Lc  em_rtc.o [1]
BUS_RegMaskedWrite      0x00000e71    0xa  Code  Lc  em_usart.o [1]
CHIP_Init               0x00002369    0x2  Code  Lc  cpt007b_demo.o [1]
CMU_ClockDivGet         0x00000355   0xa8  Code  Gb  em_cmu.o [1]
CMU_ClockDivSet         0x00000401  0x106  Code  Gb  em_cmu.o [1]
CMU_ClockEnable         0x00000509   0x80  Code  Gb  em_cmu.o [1]
CMU_ClockFreqGet        0x000005a9   0xce  Code  Gb  em_cmu.o [1]
CMU_ClockSelectGet      0x0000069d   0xe2  Code  Gb  em_cmu.o [1]
CMU_ClockSelectSet      0x000007a9  0x13e  Code  Gb  em_cmu.o [1]
CMU_DivToLog2           0x000000cb   0x26  Code  Lc  em_cmu.o [1]
CMU_Log2ToDiv           0x000000f1    0x8  Code  Lc  em_cmu.o [1]
CMU_OscillatorEnable    0x00000915   0x96  Code  Gb  em_cmu.o [1]
CORE_EnterAtomic        0x0000170d    0x8  Code  Wk  em_core.o [1]
CORE_ExitAtomic         0x00001715    0xa  Code  Wk  em_core.o [1]
CSTACK$$Base            0x200001a0          --   Gb  - Linker created -
CSTACK$$Limit           0x200005a0          --   Gb  - Linker created -
DEMO_Init               0x00001d6b   0x7c  Code  Lc  lcd.o [1]
DEMO_Redraw             0x00001de7   0x96  Code  Lc  lcd.o [1]
DISPLAY_DeviceGet       0x00001c6f   0x3c  Code  Gb  display.o [1]
DISPLAY_DeviceRegister  0x00001cab   0x4a  Code  Gb  display.o [1]
DISPLAY_Init            0x00001c41   0x2e  Code  Gb  display.o [1]
DISPLAY_Ls013b7dh03Init
                        0x00001a41   0xbe  Code  Gb  displayls013b7dh03.o [1]
DisplayClear            0x00001b43   0x36  Code  Lc  displayls013b7dh03.o [1]
DisplayEnable           0x00001b11   0x32  Code  Lc  displayls013b7dh03.o [1]
DriverRefresh           0x00001aff   0x12  Code  Lc  displayls013b7dh03.o [1]
GPIO_PinModeSet         0x000013c9  0x13a  Code  Gb  em_gpio.o [1]
GPIO_PinOutClear        0x00000abd   0x96  Code  Lc  displaypalemlib.o [1]
GPIO_PinOutClear        0x00001279   0x96  Code  Lc  em_gpio.o [1]
GPIO_PinOutSet          0x00000b53   0x96  Code  Lc  displaypalemlib.o [1]
GPIO_PinOutSet          0x0000130f   0x96  Code  Lc  em_gpio.o [1]
NVIC_ClearPendingIRQ    0x00000fe9    0xe  Code  Lc  udelay.o [1]
PAL_GpioInit            0x00000c89   0x10  Code  Gb  displaypalemlib.o [1]
PAL_GpioPinAutoToggle   0x00000d01   0x56  Code  Gb  displaypalemlib.o [1]
PAL_GpioPinModeSet      0x00000ca1   0x30  Code  Gb  displaypalemlib.o [1]
PAL_GpioPinOutClear     0x00000ceb   0x16  Code  Gb  displaypalemlib.o [1]
PAL_GpioPinOutSet       0x00000cd5   0x16  Code  Gb  displaypalemlib.o [1]
PAL_SpiInit             0x00000be9   0x30  Code  Gb  displaypalemlib.o [1]
PAL_SpiTransmit         0x00000c29   0x3e  Code  Gb  displaypalemlib.o [1]
PAL_TimerInit           0x00000c6d    0xc  Code  Gb  displaypalemlib.o [1]
PAL_TimerMicroSecondsDelay
                        0x00000c79   0x10  Code  Gb  displaypalemlib.o [1]
PRS_SourceAsyncSignalSet
                        0x00001521   0x30  Code  Gb  em_prs.o [1]
PixelMatrixClear        0x00001b79   0x2a  Code  Lc  displayls013b7dh03.o [1]
PixelMatrixDraw         0x00001ba3   0x80  Code  Lc  displayls013b7dh03.o [1]
RENDER_ClearFramebufferArea
                        0x000017a1   0x98  Code  Gb  render.o [1]
RENDER_DrawButton       0x00001839   0xe4  Code  Gb  render.o [1]
RENDER_UpdateDisplay    0x0000191d  0x10c  Code  Gb  render.o [1]
RTC_CompareSet          0x00001579   0x36  Code  Gb  em_rtc.o [1]
RTC_CounterGet          0x00000ff7    0x6  Code  Lc  udelay.o [1]
RTC_CounterReset        0x0000161d   0x10  Code  Gb  em_rtc.o [1]
RTC_Enable              0x000015af   0x12  Code  Gb  em_rtc.o [1]
RTC_FreezeEnable        0x000015c1   0x18  Code  Gb  em_rtc.o [1]
RTC_Init                0x000015d9   0x30  Code  Gb  em_rtc.o [1]
Region$$Table$$Base     0x000023c8          --   Gb  - Linker created -
Region$$Table$$Limit    0x000023e8          --   Gb  - Linker created -
SYSTEM_GetProdRev       0x000000f9    0xa  Code  Lc  em_cmu.o [1]
SystemCoreClock         0x20000e7c    0x4  Data  Gb  system_efm32zg.o [1]
SystemCoreClockGet      0x000009cd   0x1a  Code  Gb  system_efm32zg.o [1]
SystemHFClockGet        0x000009eb   0x8e  Code  Gb  system_efm32zg.o [1]
SystemHFXOClock         0x20000190    0x4  Data  Lc  system_efm32zg.o [1]
SystemInit              0x00000a79    0x2  Code  Gb  system_efm32zg.o [1]
SystemLFRCOClockGet     0x00000a7b    0x6  Code  Gb  system_efm32zg.o [1]
SystemLFXOClock         0x20000194    0x4  Data  Lc  system_efm32zg.o [1]
SystemLFXOClockGet      0x00000a87    0x6  Code  Gb  system_efm32zg.o [1]
SystemMaxCoreClockGet   0x000009e7    0x4  Code  Gb  system_efm32zg.o [1]
SystemULFRCOClockGet    0x00000a81    0x6  Code  Gb  system_efm32zg.o [1]
UDELAY_Calibrate        0x00000ffd  0x172  Code  Gb  udelay.o [1]
UDELAY_Delay            0x00001219   0x24  Code  Gb  udelay.o [1]
USART_BaudrateSyncSet   0x00000e7b   0x56  Code  Gb  em_usart.o [1]
USART_InitSync          0x00000ed9   0x7e  Code  Gb  em_usart.o [1]
USART_Reset             0x00000f5d   0x4c  Code  Gb  em_usart.o [1]
USART_Tx                0x00000fcd    0xe  Code  Gb  em_usart.o [1]
USART_TxDouble          0x00000fdb    0xe  Code  Gb  em_usart.o [1]
__Vectors               0x00000000          --   Gb  startup_efm32zg.o [1]
__Vectors_End           0x0000008c         Data  Gb  startup_efm32zg.o [1]
__Vectors_Size {Abs}    0x0000008c          --   Gb  startup_efm32zg.o [1]
__aeabi_idiv            0x00001659         Code  Gb  I32DivModFast.o [4]
__aeabi_idiv0           0x0000179d         Code  Gb  IntDivZer.o [4]
__aeabi_idivmod         0x00001659         Code  Gb  I32DivModFast.o [4]
__aeabi_memcpy          0x00000e15         Code  Gb  ABImemcpy.o [4]
__aeabi_memcpy4         0x00000e3d         Code  Wk  ABImemcpy.o [4]
__aeabi_memset          0x00001d15         Code  Gb  ABImemset.o [4]
__aeabi_uidiv           0x0000165f         Code  Gb  I32DivModFast.o [4]
__aeabi_uidivmod        0x0000165f         Code  Gb  I32DivModFast.o [4]
__cmain                 0x00002405         Code  Gb  cmain.o [4]
__cmsis_iar_clz         0x0000008d   0x16  Code  Lc  em_cmu.o [1]
__exit                  0x00002439         Code  Gb  XXexit.o [4]
__iar_Memset4_word      0x00001d35         Code  Gb  ABImemset.o [4]
__iar_Memset_word       0x00001d21         Code  Gb  ABImemset.o [4]
__iar_data_init3        0x000023a1   0x28  Code  Gb  data_init.o [4]
__iar_lz77_init_single3
                        0x0000171f   0x7e  Code  Gb  lz77_init_single.o [4]
__iar_program_start     0x00002485         Code  Gb  cstartup_M.o [4]
__iar_zero_init3        0x0000232d   0x3c  Code  Gb  zero_init3.o [4]
__low_level_init        0x0000241f    0x4  Code  Gb  low_level_init.o [3]
__vector_table          0x00000000         Data  Gb  startup_efm32zg.o [1]
__vector_table_0x1c     0x0000001c         Data  Gb  startup_efm32zg.o [1]
_call_main              0x00002411         Code  Gb  cmain.o [4]
_delay                  0x00001211    0x6  Code  Lc  udelay.o [1]
_exit                   0x0000242d         Code  Gb  cexit.o [4]
_main                   0x0000241b         Code  Gb  cmain.o [4]
assertEFM               0x000009c9    0x4  Code  Gb  em_assert.o [1]
auxClkGet               0x00000103   0x7e  Code  Lc  em_cmu.o [1]
buttons                 0x20000da0   0x60  Data  Lc  lcd.o [1]
buttons_x_pos           0x000023e8   0x1c  Data  Lc  lcd.o [1]
buttons_y_pos           0x00002490    0x8  Data  Lc  lcd.o [1]
calibrate_delay         0x0000116f   0x9a  Code  Lc  udelay.o [1]
capsenseCurrent         0x20000e82    0x1  Data  Lc  gpio.o [1]
capsensePrevious        0x20000e83    0x1  Data  Lc  gpio.o [1]
clock                   0x00001209    0x8  Code  Lc  udelay.o [1]
dbgClkGet               0x00000181   0x38  Code  Lc  em_cmu.o [1]
deviceTable             0x20000e00   0x2c  Data  Lc  display.o [1]
devicesRegistered       0x20000e78    0x4  Data  Lc  display.o [1]
dirtyLines              0x20000e58   0x20  Data  Lc  render.o [1]
dirtyLinesNew           0x2000018c    0x4  Data  Lc  render.o [1]
dirtyLinesOld           0x20000188    0x4  Data  Lc  render.o [1]
displayDevice           0x20000e2c   0x2c  Data  Lc  lcd.o [1]
exit                    0x00002423    0x8  Code  Gb  exit.o [3]
flashWaitStateControl   0x000001b9   0x52  Code  Lc  em_cmu.o [1]
flashWaitStateMax       0x0000020b    0xc  Code  Lc  em_cmu.o [1]
frameBuffer             0x200005a0  0x800  Data  Lc  render.o [1]
getCapsenseCurrent      0x00001ed9    0x6  Code  Gb  gpio.o [1]
getCapsensePrevious     0x00001edf    0x6  Code  Gb  gpio.o [1]
initDemoObject          0x00001d65    0x6  Code  Lc  lcd.o [1]
initGPIO                0x00001ee5   0x6c  Code  Gb  gpio.o [1]
initLCD                 0x00001e7d   0x2c  Code  Gb  lcd.o [1]
lcdPolarity             0x20000e81    0x1  Data  Lc  displayls013b7dh03.o [1]
lfClkGet                0x00000217   0xc4  Code  Lc  em_cmu.o [1]
loops_per_jiffy         0x20000198    0x4  Data  Gb  udelay.o [1]
main                    0x0000236b   0x34  Code  Gb  cpt007b_demo.o [1]
moduleInitialized       0x20000e80    0x1  Data  Lc  display.o [1]
out_disable_bits        0x20000108   0x80  Data  Lc  render.o [1]
out_off_bits            0x20000008   0x80  Data  Lc  render.o [1]
out_on_bits             0x20000088   0x80  Data  Lc  render.o [1]
pDisplayDeviceDriverInitFunctions
                        0x20000000    0x8  Data  Lc  display.o [1]
palClockSetup           0x00000d57   0x16  Code  Lc  displaypalemlib.o [1]
rtcSetup                0x00000d75   0x5e  Code  Lc  displaypalemlib.o [1]
syncReg                 0x000002db   0x16  Code  Lc  em_cmu.o [1]
updateGPIO              0x00001f51   0xae  Code  Gb  gpio.o [1]
updateLCD               0x00001ea9   0x20  Code  Gb  lcd.o [1]


[1] = D:\jenkins-slave\workspaces\Executor-0\super\app\mcu_example\EFM32ZG_STK3200\cpt007b\iar\cpt007b_demo\Debug\Obj
[2] = command line
[3] = dl6M_tln.a
[4] = rt6M_tl.a

  8 504 bytes of readonly  code memory
  1 111 bytes of readonly  data memory
  3 712 bytes of readwrite data memory

Errors: none
Warnings: none
