###############################################################################
#
# IAR ELF Linker V7.80.2.11947/W32 for ARM                09/Mar/2017  19:47:18
# Copyright 2007-2016 IAR Systems AB.
#
#    Output file  =  
#        D:\jenkins-slave\workspaces\Executor-0\super\app\mcu_example\EFM32GG_DK3750\eeprom\iar\eeprom\Debug\Exe\eeprom.out
#    Map file     =  
#        D:\jenkins-slave\workspaces\Executor-0\super\app\mcu_example\EFM32GG_DK3750\eeprom\iar\eeprom\Debug\List\eeprom.map
#    Command line =  
#        D:\jenkins-slave\workspaces\Executor-0\super\app\mcu_example\EFM32GG_DK3750\eeprom\iar\eeprom\Debug\Obj\bsp_dk_3201.o
#        D:\jenkins-slave\workspaces\Executor-0\super\app\mcu_example\EFM32GG_DK3750\eeprom\iar\eeprom\Debug\Obj\bsp_dk_leds.o
#        D:\jenkins-slave\workspaces\Executor-0\super\app\mcu_example\EFM32GG_DK3750\eeprom\iar\eeprom\Debug\Obj\bsp_trace.o
#        D:\jenkins-slave\workspaces\Executor-0\super\app\mcu_example\EFM32GG_DK3750\eeprom\iar\eeprom\Debug\Obj\dmd_ssd2119_16bit.o
#        D:\jenkins-slave\workspaces\Executor-0\super\app\mcu_example\EFM32GG_DK3750\eeprom\iar\eeprom\Debug\Obj\dmdif_ssd2119_ebi16.o
#        D:\jenkins-slave\workspaces\Executor-0\super\app\mcu_example\EFM32GG_DK3750\eeprom\iar\eeprom\Debug\Obj\eeprom.o
#        D:\jenkins-slave\workspaces\Executor-0\super\app\mcu_example\EFM32GG_DK3750\eeprom\iar\eeprom\Debug\Obj\eepromtest.o
#        D:\jenkins-slave\workspaces\Executor-0\super\app\mcu_example\EFM32GG_DK3750\eeprom\iar\eeprom\Debug\Obj\em_assert.o
#        D:\jenkins-slave\workspaces\Executor-0\super\app\mcu_example\EFM32GG_DK3750\eeprom\iar\eeprom\Debug\Obj\em_cmu.o
#        D:\jenkins-slave\workspaces\Executor-0\super\app\mcu_example\EFM32GG_DK3750\eeprom\iar\eeprom\Debug\Obj\em_ebi.o
#        D:\jenkins-slave\workspaces\Executor-0\super\app\mcu_example\EFM32GG_DK3750\eeprom\iar\eeprom\Debug\Obj\em_emu.o
#        D:\jenkins-slave\workspaces\Executor-0\super\app\mcu_example\EFM32GG_DK3750\eeprom\iar\eeprom\Debug\Obj\em_gpio.o
#        D:\jenkins-slave\workspaces\Executor-0\super\app\mcu_example\EFM32GG_DK3750\eeprom\iar\eeprom\Debug\Obj\em_i2c.o
#        D:\jenkins-slave\workspaces\Executor-0\super\app\mcu_example\EFM32GG_DK3750\eeprom\iar\eeprom\Debug\Obj\em_rtc.o
#        D:\jenkins-slave\workspaces\Executor-0\super\app\mcu_example\EFM32GG_DK3750\eeprom\iar\eeprom\Debug\Obj\em_system.o
#        D:\jenkins-slave\workspaces\Executor-0\super\app\mcu_example\EFM32GG_DK3750\eeprom\iar\eeprom\Debug\Obj\em_usart.o
#        D:\jenkins-slave\workspaces\Executor-0\super\app\mcu_example\EFM32GG_DK3750\eeprom\iar\eeprom\Debug\Obj\i2cspm.o
#        D:\jenkins-slave\workspaces\Executor-0\super\app\mcu_example\EFM32GG_DK3750\eeprom\iar\eeprom\Debug\Obj\retargetio.o
#        D:\jenkins-slave\workspaces\Executor-0\super\app\mcu_example\EFM32GG_DK3750\eeprom\iar\eeprom\Debug\Obj\retargettft.o
#        D:\jenkins-slave\workspaces\Executor-0\super\app\mcu_example\EFM32GG_DK3750\eeprom\iar\eeprom\Debug\Obj\startup_efm32gg.o
#        D:\jenkins-slave\workspaces\Executor-0\super\app\mcu_example\EFM32GG_DK3750\eeprom\iar\eeprom\Debug\Obj\system_efm32gg.o
#        --redirect _Printf=_PrintfFull --redirect _Scanf=_ScanfFull -o
#        D:\jenkins-slave\workspaces\Executor-0\super\app\mcu_example\EFM32GG_DK3750\eeprom\iar\eeprom\Debug\Exe\eeprom.out
#        --map
#        D:\jenkins-slave\workspaces\Executor-0\super\app\mcu_example\EFM32GG_DK3750\eeprom\iar\eeprom\Debug\List\eeprom.map
#        --config
#        T:\iar_ew_7802_win32_rel_1\arm\config\linker\SiliconLaboratories\EFM32GG990F1024.icf
#        --entry __iar_program_start --vfe
#
###############################################################################

*******************************************************************************
*** RUNTIME MODEL ATTRIBUTES
***

CppFlavor       = *
__SystemLibrary = DLib


*******************************************************************************
*** PLACEMENT SUMMARY
***

"A0":  place at 0x00000000 { ro section .intvec };
"P1":  place in [from 0x00000000 to 0x000fffff] { ro };
"P2":  place in [from 0x20000000 to 0x2001ffff] { rw, block CSTACK, block HEAP };
initialize by copy { rw };
 { section .intvec };

  Section            Kind        Address    Size  Object
  -------            ----        -------    ----  ------
"A0":                                       0xdc
  .intvec            ro code  0x00000000    0xdc  startup_efm32gg.o [1]
                            - 0x000000dc    0xdc

"P1":                                     0x63d4
  .text              ro code  0x000000dc   0xdd2  xprintffull.o [3]
  .text              ro code  0x00000eb0    0x16  strchr.o [5]
  .text              ro code  0x00000ec8    0x36  strlen.o [5]
  .text              ro code  0x00000f00    0x58  memchr.o [5]
  .text              ro code  0x00000f58    0xee  I64DivMod.o [5]
  .text              ro code  0x00001048    0x76  ABImemcpy_unaligned.o [5]
  .text              ro code  0x000010be    0x44  xdnorm.o [4]
  .text              ro code  0x00001104    0x2e  DblCmpLe.o [4]
  .text              ro code  0x00001134    0x2e  DblCmpGe.o [4]
  .text              ro code  0x00001164   0x10c  xdscale.o [4]
  .text              ro code  0x00001270    0x58  DblToI32.o [4]
  .text              ro code  0x000012c8    0x30  I32ToDbl.o [4]
  .text              ro code  0x000012f8   0x180  DblSub.o [4]
  .text              ro code  0x00001478   0x1a2  DblMul.o [4]
  .text              ro code  0x0000161c   0x256  DblDiv.o [4]
  .text              ro code  0x00001872     0xe  div.o [3]
  .text              ro code  0x00001880     0x2  I64DivZer.o [5]
  .text              ro code  0x00001884    0xd4  DblAdd.o [4]
  .text              ro code  0x00001958   0xbe4  bsp_dk_3201.o [1]
  .text              ro code  0x0000253c     0x2  em_assert.o [1]
  .text              ro code  0x00002540   0xb38  em_cmu.o [1]
  .text              ro code  0x00003078   0x3fc  em_gpio.o [1]
  .text              ro code  0x00003474   0x7b8  em_ebi.o [1]
  .text              ro code  0x00003c2c   0x194  em_usart.o [1]
  .text              ro code  0x00003dc0   0x138  system_efm32gg.o [1]
  .text              ro code  0x00003ef8   0x884  retargettft.o [1]
  .text              ro code  0x0000477c    0x78  dmdif_ssd2119_ebi16.o [1]
  .text              ro code  0x000047f4   0x3f8  dmd_ssd2119_16bit.o [1]
  .text              ro code  0x00004bec   0x51c  em_i2c.o [1]
  .rodata            const    0x00005108   0x320  retargettft.o [1]
  .text              ro code  0x00005428   0x274  eepromtest.o [1]
  .text              ro code  0x0000569c    0x18  bsp_dk_leds.o [1]
  .text              ro code  0x000056b4    0x24  printf.o [3]
  .text              ro code  0x000056d8   0x118  bsp_trace.o [1]
  .text              ro code  0x000057f0   0x24c  i2cspm.o [1]
  .text              ro code  0x00005a3c   0x164  eeprom.o [1]
  .text              ro code  0x00005ba0   0x1d0  em_emu.o [1]
  .rodata            const    0x00005d70    0x84  bsp_dk_3201.o [1]
  .rodata            const    0x00005df4    0x84  em_cmu.o [1]
  .rodata            const    0x00005e78    0x84  em_gpio.o [1]
  .rodata            const    0x00005efc    0x84  i2cspm.o [1]
  .text              ro code  0x00005f80    0x56  retargetio.o [1]
  .rodata            const    0x00005fd8    0x54  i2cspm.o [1]
  .rodata            const    0x0000602c    0x50  bsp_dk_3201.o [1]
  .rodata            const    0x0000607c    0x4c  em_cmu.o [1]
  .rodata            const    0x000060c8    0x4c  em_ebi.o [1]
  .rodata            const    0x00006114    0x4c  em_gpio.o [1]
  .rodata            const    0x00006160    0x4c  em_i2c.o [1]
  .rodata            const    0x000061ac    0x4c  em_usart.o [1]
  .text              ro code  0x000061f8    0x40  zero_init3.o [5]
  .text              ro code  0x00006238    0x2c  copy_init3.o [5]
  .text              ro code  0x00006264    0x28  putchar.o [3]
  .text              ro code  0x0000628c    0x28  data_init.o [5]
  .iar.init_table    const    0x000062b4    0x24  - Linker created -
  .rodata            const    0x000062d8    0x1c  eepromtest.o [1]
  .rodata            const    0x000062f4    0x1c  retargettft.o [1]
  .text              ro code  0x00006310    0x1a  cmain.o [5]
  .text              ro code  0x0000632a     0x4  low_level_init.o [3]
  .text              ro code  0x0000632e     0x4  exit.o [3]
  .text              ro code  0x00006334     0xa  cexit.o [5]
  .text              ro code  0x00006340     0xc  XXexit.o [5]
  .rodata            const    0x0000634c    0x18  bsp_dk_3201.o [1]
  .rodata            const    0x00006364    0x18  eepromtest.o [1]
  .rodata            const    0x0000637c    0x18  eepromtest.o [1]
  .text              ro code  0x00006394    0x16  xprout.o [3]
  .text              ro code  0x000063ac    0x10  startup_efm32gg.o [1]
  .rodata            const    0x000063bc     0xc  eepromtest.o [1]
  .text              ro code  0x000063c8     0xc  cstartup_M.o [5]
  Initializer bytes  const    0x000063d4     0xc  <for P2-1>
  .rodata            const    0x000063e0     0x8  eepromtest.o [1]
  .rodata            const    0x000063e8     0x8  eepromtest.o [1]
  .rodata            const    0x000063f0     0x4  em_i2c.o [1]
  .text              ro code  0x000063f4     0x4  startup_efm32gg.o [1]
  .text              ro code  0x000063f8     0x4  startup_efm32gg.o [1]
  .text              ro code  0x000063fc     0x4  startup_efm32gg.o [1]
  .text              ro code  0x00006400     0x4  startup_efm32gg.o [1]
  .text              ro code  0x00006404     0x4  startup_efm32gg.o [1]
  .text              ro code  0x00006408     0x4  startup_efm32gg.o [1]
  .text              ro code  0x0000640c     0x4  startup_efm32gg.o [1]
  .text              ro code  0x00006410     0x4  startup_efm32gg.o [1]
  .text              ro code  0x00006414     0x4  startup_efm32gg.o [1]
  .text              ro code  0x00006418     0x4  startup_efm32gg.o [1]
  .text              ro code  0x0000641c     0x4  startup_efm32gg.o [1]
  .text              ro code  0x00006420     0x4  startup_efm32gg.o [1]
  .text              ro code  0x00006424     0x4  startup_efm32gg.o [1]
  .text              ro code  0x00006428     0x4  startup_efm32gg.o [1]
  .text              ro code  0x0000642c     0x4  startup_efm32gg.o [1]
  .text              ro code  0x00006430     0x4  startup_efm32gg.o [1]
  .text              ro code  0x00006434     0x4  startup_efm32gg.o [1]
  .text              ro code  0x00006438     0x4  startup_efm32gg.o [1]
  .text              ro code  0x0000643c     0x4  startup_efm32gg.o [1]
  .text              ro code  0x00006440     0x4  startup_efm32gg.o [1]
  .text              ro code  0x00006444     0x4  startup_efm32gg.o [1]
  .text              ro code  0x00006448     0x4  startup_efm32gg.o [1]
  .text              ro code  0x0000644c     0x4  startup_efm32gg.o [1]
  .text              ro code  0x00006450     0x4  startup_efm32gg.o [1]
  .text              ro code  0x00006454     0x4  startup_efm32gg.o [1]
  .text              ro code  0x00006458     0x4  startup_efm32gg.o [1]
  .text              ro code  0x0000645c     0x4  startup_efm32gg.o [1]
  .text              ro code  0x00006460     0x4  startup_efm32gg.o [1]
  .text              ro code  0x00006464     0x4  startup_efm32gg.o [1]
  .text              ro code  0x00006468     0x4  startup_efm32gg.o [1]
  .text              ro code  0x0000646c     0x4  startup_efm32gg.o [1]
  .text              ro code  0x00006470     0x4  startup_efm32gg.o [1]
  .text              ro code  0x00006474     0x4  startup_efm32gg.o [1]
  .text              ro code  0x00006478     0x4  startup_efm32gg.o [1]
  .text              ro code  0x0000647c     0x4  startup_efm32gg.o [1]
  .text              ro code  0x00006480     0x4  startup_efm32gg.o [1]
  .text              ro code  0x00006484     0x4  startup_efm32gg.o [1]
  .text              ro code  0x00006488     0x4  startup_efm32gg.o [1]
  .text              ro code  0x0000648c     0x4  startup_efm32gg.o [1]
  .text              ro code  0x00006490     0x4  startup_efm32gg.o [1]
  .text              ro code  0x00006494     0x4  startup_efm32gg.o [1]
  .text              ro code  0x00006498     0x4  startup_efm32gg.o [1]
  .text              ro code  0x0000649c     0x4  startup_efm32gg.o [1]
  .text              ro code  0x000064a0     0x4  startup_efm32gg.o [1]
  .text              ro code  0x000064a4     0x4  startup_efm32gg.o [1]
  .text              ro code  0x000064a8     0x4  startup_efm32gg.o [1]
  .text              ro code  0x000064ac     0x4  startup_efm32gg.o [1]
  .rodata            const    0x000064b0     0x0  zero_init3.o [5]
  .rodata            const    0x000064b0     0x0  copy_init3.o [5]
                            - 0x000064b0  0x63d4

"P2", part 1 of 3:                           0xc
  P2-1                        0x20000000     0xb  <Init block>
    .data            inited   0x20000000     0x4  system_efm32gg.o [1]
    .data            inited   0x20000004     0x4  system_efm32gg.o [1]
    .data            inited   0x20000008     0x1  retargettft.o [1]
    .data            inited   0x20000009     0x1  retargettft.o [1]
    .data            inited   0x2000000a     0x1  retargettft.o [1]
                            - 0x2000000b     0xb

"P2", part 2 of 3:                         0x400
  CSTACK                      0x20000010   0x400  <Block>
    CSTACK           uninit   0x20000010   0x400  <Block tail>
                            - 0x20000410   0x400

"P2", part 3 of 3:                         0x508
  .bss               zero     0x20000410   0x4b0  retargettft.o [1]
  .bss               zero     0x200008c0    0x18  em_i2c.o [1]
  .bss               zero     0x200008d8     0xc  dmd_ssd2119_16bit.o [1]
  .bss               zero     0x200008e4     0x4  bsp_dk_3201.o [1]
  .bss               zero     0x200008e8     0x4  bsp_dk_3201.o [1]
  .bss               zero     0x200008ec     0x4  dmd_ssd2119_16bit.o [1]
  .bss               zero     0x200008f0     0x4  dmdif_ssd2119_ebi16.o [1]
  .bss               zero     0x200008f4     0x4  dmdif_ssd2119_ebi16.o [1]
  .bss               zero     0x200008f8     0x4  em_emu.o [1]
  .bss               zero     0x200008fc     0x4  retargettft.o [1]
  .bss               zero     0x20000900     0x4  retargettft.o [1]
  .bss               zero     0x20000904     0x4  retargettft.o [1]
  .bss               zero     0x20000908     0x4  system_efm32gg.o [1]
  .bss               zero     0x2000090c     0x2  bsp_dk_3201.o [1]
  .bss               zero     0x2000090e     0x2  dmd_ssd2119_16bit.o [1]
  .bss               zero     0x20000910     0x1  bsp_dk_3201.o [1]
  .bss               zero     0x20000911     0x1  eepromtest.o [1]
  .bss               zero     0x20000912     0x1  eepromtest.o [1]
  .bss               zero     0x20000913     0x1  em_emu.o [1]
  .bss               zero     0x20000914     0x1  retargettft.o [1]
  .bss               zero     0x20000915     0x1  retargettft.o [1]
                            - 0x20000916   0x506


*******************************************************************************
*** INIT TABLE
***

          Address     Size
          -------     ----
Zero (__iar_zero_init3)
    1 destination range, total size 0x506:
          0x20000410  0x506

Copy (__iar_copy_init3)
    1 source range, total size 0xc (109% of destination):
          0x000063d4    0xc
    1 destination range, total size 0xb:
          0x20000000    0xb



*******************************************************************************
*** MODULE SUMMARY
***

    Module                 ro code  ro data  rw data
    ------                 -------  -------  -------
D:\jenkins-slave\workspaces\Executor-0\super\app\mcu_example\EFM32GG_DK3750\eeprom\iar\eeprom\Debug\Obj: [1]
    bsp_dk_3201.o            3 044      236       11
    bsp_dk_leds.o               24
    bsp_trace.o                280
    dmd_ssd2119_16bit.o      1 016                18
    dmdif_ssd2119_ebi16.o      120                 8
    eeprom.o                   356
    eepromtest.o               628      104        2
    em_assert.o                  2
    em_cmu.o                 2 872      208
    em_ebi.o                 1 976       76
    em_emu.o                   464                 5
    em_gpio.o                1 020      208
    em_i2c.o                 1 308       80       24
    em_usart.o                 404       76
    i2cspm.o                   588      216
    retargetio.o                86
    retargettft.o            2 180      831    1 217
    startup_efm32gg.o          424
    system_efm32gg.o           312        8       12
    ------------------------------------------------
    Total:                  17 104    2 043    1 297

command line: [2]
    ------------------------------------------------
    Total:

dl7M_tln.a: [3]
    div.o                       14
    exit.o                       4
    low_level_init.o             4
    printf.o                    36
    putchar.o                   40
    xprintffull.o            3 538
    xprout.o                    22
    ------------------------------------------------
    Total:                   3 658

m7M_tl.a: [4]
    DblAdd.o                   212
    DblCmpGe.o                  46
    DblCmpLe.o                  46
    DblDiv.o                   598
    DblMul.o                   418
    DblSub.o                   384
    DblToI32.o                  88
    I32ToDbl.o                  48
    xdnorm.o                    68
    xdscale.o                  268
    ------------------------------------------------
    Total:                   2 176

rt7M_tl.a: [5]
    ABImemcpy_unaligned.o      118
    I64DivMod.o                238
    I64DivZer.o                  2
    XXexit.o                    12
    cexit.o                     10
    cmain.o                     26
    copy_init3.o                44
    cstartup_M.o                12
    data_init.o                 40
    memchr.o                    88
    strchr.o                    22
    strlen.o                    54
    zero_init3.o                64
    ------------------------------------------------
    Total:                     730

    Gaps                        26        2
    Linker created                       37    1 024
----------------------------------------------------
    Grand Total:            23 694    2 082    2 321


*******************************************************************************
*** ENTRY LIST
***

Entry                      Address   Size  Type      Object
-----                      -------   ----  ----      ------
.iar.init_table$$Base   0x000062b4          --   Gb  - Linker created -
.iar.init_table$$Limit  0x000062d8          --   Gb  - Linker created -
?main                   0x00006311         Code  Gb  cmain.o [5]
BSP_BusControlModeSet   0x00001b07   0x9c  Code  Gb  bsp_dk_3201.o [1]
BSP_DisplayControl      0x00001ba3   0xfc  Code  Gb  bsp_dk_3201.o [1]
BSP_EbiExtendedAddressRange
                        0x00001c9f   0x24  Code  Gb  bsp_dk_3201.o [1]
BSP_Init                0x00001aad   0x5a  Code  Gb  bsp_dk_3201.o [1]
BSP_InterruptDisable    0x00001cc3   0x24  Code  Gb  bsp_dk_3201.o [1]
BSP_InterruptEnable     0x00001ce7   0x20  Code  Gb  bsp_dk_3201.o [1]
BSP_InterruptFlagsClear
                        0x00001d07   0x3a  Code  Gb  bsp_dk_3201.o [1]
BSP_InterruptFlagsGet   0x00001d41    0xc  Code  Gb  bsp_dk_3201.o [1]
BSP_JoystickGet         0x00001d4d   0x12  Code  Gb  bsp_dk_3201.o [1]
BSP_LedsSet             0x0000569d   0x12  Code  Gb  bsp_dk_leds.o [1]
BSP_PeripheralAccess    0x00001d5f  0x236  Code  Gb  bsp_dk_3201.o [1]
BSP_PushButtonsGet      0x00001f95   0x12  Code  Gb  bsp_dk_3201.o [1]
BSP_RegisterRead        0x00001fa7   0x1a  Code  Gb  bsp_dk_3201.o [1]
BSP_RegisterWrite       0x00001fc1   0x22  Code  Gb  bsp_dk_3201.o [1]
BSP_TraceProfilerSetup  0x000057d9   0x18  Code  Gb  bsp_trace.o [1]
BSP_TraceSwoSetup       0x000056d9   0xac  Code  Gb  bsp_trace.o [1]
BUS_RegBitRead          0x0000254f   0x10  Code  Lc  em_cmu.o [1]
BUS_RegBitWrite         0x00002541    0xe  Code  Lc  em_cmu.o [1]
BUS_RegBitWrite         0x00003475    0xe  Code  Lc  em_ebi.o [1]
BUS_RegBitWrite         0x00003079    0xe  Code  Lc  em_gpio.o [1]
BUS_RegBitWrite         0x00004bed    0xe  Code  Lc  em_i2c.o [1]
BUS_RegMaskedWrite      0x00003087    0xa  Code  Lc  em_gpio.o [1]
BUS_RegMaskedWrite      0x00004bfb    0xa  Code  Lc  em_i2c.o [1]
BUS_RegMaskedWrite      0x00003c2d    0xa  Code  Lc  em_usart.o [1]
CMU_ClockEnable         0x0000291b   0xa6  Code  Gb  em_cmu.o [1]
CMU_ClockFreqGet        0x000029d5  0x188  Code  Gb  em_cmu.o [1]
CMU_ClockSelectGet      0x00002b99  0x134  Code  Gb  em_cmu.o [1]
CMU_ClockSelectSet      0x00002cf1  0x292  Code  Gb  em_cmu.o [1]
CMU_DivToLog2           0x0000255f   0x28  Code  Lc  em_cmu.o [1]
CMU_Lock                0x00005ba9    0xa  Code  Lc  em_emu.o [1]
CMU_OscillatorEnable    0x00002fa1   0x9c  Code  Gb  em_cmu.o [1]
CMU_Unlock              0x00005bb3    0xc  Code  Lc  em_emu.o [1]
CSTACK$$Base            0x20000010          --   Gb  - Linker created -
CSTACK$$Limit           0x20000410          --   Gb  - Linker created -
DMDIF_init              0x0000477d    0xe  Code  Gb  dmdif_ssd2119_ebi16.o [1]
DMDIF_prepareDataAccess
                        0x000047a3    0xc  Code  Gb  dmdif_ssd2119_ebi16.o [1]
DMDIF_writeData         0x000047af    0xc  Code  Gb  dmdif_ssd2119_ebi16.o [1]
DMDIF_writeDataRepeated
                        0x000047bb   0x20  Code  Gb  dmdif_ssd2119_ebi16.o [1]
DMDIF_writeReg          0x0000478b   0x18  Code  Gb  dmdif_ssd2119_ebi16.o [1]
DMD_flipDisplay         0x00004b9b   0x42  Code  Gb  dmd_ssd2119_16bit.o [1]
DMD_init                0x000047f5  0x236  Code  Gb  dmd_ssd2119_16bit.o [1]
DMD_writeColor          0x00004b07   0x78  Code  Gb  dmd_ssd2119_16bit.o [1]
DMD_writeData           0x00004a75   0x92  Code  Gb  dmd_ssd2119_16bit.o [1]
EBI_BankAddressTimingConfig
                        0x000039b7   0x5a  Code  Gb  em_ebi.o [1]
EBI_BankAddressTimingSet
                        0x00003a11   0x86  Code  Gb  em_ebi.o [1]
EBI_BankPolaritySet     0x00003aa1  0x12a  Code  Gb  em_ebi.o [1]
EBI_BankReadTimingConfig
                        0x000036d3   0xd8  Code  Gb  em_ebi.o [1]
EBI_BankReadTimingSet   0x000037ab   0xc6  Code  Gb  em_ebi.o [1]
EBI_BankWriteTimingConfig
                        0x00003871   0x9e  Code  Gb  em_ebi.o [1]
EBI_BankWriteTimingSet  0x0000390f   0xa8  Code  Gb  em_ebi.o [1]
EBI_ChipSelectEnable    0x00003683   0x50  Code  Gb  em_ebi.o [1]
EBI_Init                0x00003483  0x200  Code  Gb  em_ebi.o [1]
EEPROM_AckPoll          0x00005a3d   0x42  Code  Lc  eeprom.o [1]
EEPROM_Read             0x00005a7f   0x72  Code  Gb  eeprom.o [1]
EEPROM_Write            0x00005af1   0xb0  Code  Gb  eeprom.o [1]
EMU_EnterEM2            0x00005ccb   0x6c  Code  Gb  em_emu.o [1]
EbiInit                 0x00001fe3  0x30a  Code  Lc  bsp_dk_3201.o [1]
GPIO_EVEN_IRQHandler    0x00005485   0x78  Code  Gb  eepromtest.o [1]
GPIO_ExtIntConfig       0x000031e5  0x11c  Code  Gb  em_gpio.o [1]
GPIO_IntClear           0x00005451    0x6  Code  Lc  eepromtest.o [1]
GPIO_IntConfig          0x00005457   0x2e  Code  Lc  eepromtest.o [1]
GPIO_PinModeSet         0x00003301  0x14e  Code  Gb  em_gpio.o [1]
GPIO_PinOutClear        0x00001959   0xaa  Code  Lc  bsp_dk_3201.o [1]
GPIO_PinOutClear        0x00003091   0xaa  Code  Lc  em_gpio.o [1]
GPIO_PinOutClear        0x000057f1   0xa6  Code  Lc  i2cspm.o [1]
GPIO_PinOutSet          0x00001a03   0xaa  Code  Lc  bsp_dk_3201.o [1]
GPIO_PinOutSet          0x0000313b   0xaa  Code  Lc  em_gpio.o [1]
GPIO_PinOutSet          0x00005897   0xa6  Code  Lc  i2cspm.o [1]
GetProdRev              0x00003dc1    0xa  Code  Lc  system_efm32gg.o [1]
I2CSPM_Init             0x0000593d   0xaa  Code  Gb  i2cspm.o [1]
I2CSPM_Transfer         0x000059e7   0x30  Code  Gb  i2cspm.o [1]
I2C_BusFreqSet          0x00004c05   0xfe  Code  Gb  em_i2c.o [1]
I2C_Init                0x00004d03   0x54  Code  Gb  em_i2c.o [1]
I2C_Transfer            0x00004d57  0x2d8  Code  Gb  em_i2c.o [1]
I2C_TransferInit        0x0000502f   0xa2  Code  Gb  em_i2c.o [1]
LFtoCRLF                0x20000914    0x1  Data  Lc  retargettft.o [1]
LoadInt                 0x00000683   0x6e  Code  Lc  xprintffull.o [3]
NVIC_ClearPendingIRQ    0x0000543d   0x14  Code  Lc  eepromtest.o [1]
NVIC_EnableIRQ          0x00005429   0x14  Code  Lc  eepromtest.o [1]
RETARGET_TFTTX          0x00004063   0xe4  Code  Gb  retargettft.o [1]
RETARGET_TFTUpdate      0x00004147  0x540  Code  Gb  retargettft.o [1]
RETARGET_TftInit        0x00003ef9    0x8  Code  Gb  retargettft.o [1]
RETARGET_WriteChar      0x00004687   0xb6  Code  Gb  retargettft.o [1]
Region$$Table$$Base     0x000062b4          --   Gb  - Linker created -
Region$$Table$$Limit    0x000062d8          --   Gb  - Linker created -
SYSTEM_GetFamily        0x00002593    0xc  Code  Lc  em_cmu.o [1]
SYSTEM_GetProdRev       0x00002587    0xc  Code  Lc  em_cmu.o [1]
SpiBcAccess             0x000022ed   0x60  Code  Lc  bsp_dk_3201.o [1]
SpiBcInit               0x0000234d   0x60  Code  Lc  bsp_dk_3201.o [1]
SpiControl              0x000023ad   0x44  Code  Lc  bsp_dk_3201.o [1]
SpiInit                 0x000023f1   0x30  Code  Lc  bsp_dk_3201.o [1]
SpiRegisterRead         0x00002421   0x56  Code  Lc  bsp_dk_3201.o [1]
SpiRegisterWrite        0x0000247d   0x48  Code  Lc  bsp_dk_3201.o [1]
SystemCoreClock         0x20000908    0x4  Data  Gb  system_efm32gg.o [1]
SystemCoreClockGet      0x00003dcb   0x1a  Code  Gb  system_efm32gg.o [1]
SystemCoreClockUpdate   0x00005ba1    0x8  Code  Lc  em_emu.o [1]
SystemHFClockGet        0x00003de9   0xb2  Code  Gb  system_efm32gg.o [1]
SystemHFXOClock         0x20000000    0x4  Data  Lc  system_efm32gg.o [1]
SystemHFXOClockGet      0x00003e9b    0x6  Code  Gb  system_efm32gg.o [1]
SystemInit              0x00003ea1    0x2  Code  Gb  system_efm32gg.o [1]
SystemLFRCOClockGet     0x00003ea3    0x6  Code  Gb  system_efm32gg.o [1]
SystemLFXOClock         0x20000004    0x4  Data  Lc  system_efm32gg.o [1]
SystemLFXOClockGet      0x00003eaf    0x6  Code  Gb  system_efm32gg.o [1]
SystemMaxCoreClockGet   0x00003de5    0x4  Code  Gb  system_efm32gg.o [1]
SystemULFRCOClockGet    0x00003ea9    0x6  Code  Gb  system_efm32gg.o [1]
TxBuf                   0x00005f81   0x1e  Code  Lc  retargetio.o [1]
USART_BaudrateSyncSet   0x00003c37   0x54  Code  Gb  em_usart.o [1]
USART_InitSync          0x00003c8b   0x8a  Code  Gb  em_usart.o [1]
USART_Reset             0x00003d15   0x72  Code  Gb  em_usart.o [1]
USART_Rx                0x00003da9    0xc  Code  Gb  em_usart.o [1]
USART_Tx                0x00003db5    0xc  Code  Gb  em_usart.o [1]
_GenldFull              0x00000bfd  0x26a  Code  Lc  xprintffull.o [3]
_LdtobFull              0x000007fd  0x3fa  Code  Lc  xprintffull.o [3]
_LitobFull              0x000006f1  0x10a  Code  Lc  xprintffull.o [3]
_PrintfFull             0x000000dd  0x5a0  Code  Gb  xprintffull.o [3]
_Prout                  0x00006395   0x16  Code  Gb  xprout.o [3]
_PutcharsFull           0x00000e67   0x2e  Code  Lc  xprintffull.o [3]
__Vectors               0x00000000          --   Gb  startup_efm32gg.o [1]
__Vectors_End           0x000000dc         Data  Gb  startup_efm32gg.o [1]
__Vectors_Size {Abs}    0x000000dc          --   Gb  startup_efm32gg.o [1]
__aeabi_cdcmple         0x00001105         Code  Gb  DblCmpLe.o [4]
__aeabi_cdrcmple        0x00001135         Code  Gb  DblCmpGe.o [4]
__aeabi_d2iz            0x00001271         Code  Gb  DblToI32.o [4]
__aeabi_d2uiz           0x0000129d         Code  Gb  DblToI32.o [4]
__aeabi_ddiv            0x0000161d         Code  Gb  DblDiv.o [4]
__aeabi_dmul            0x00001479         Code  Gb  DblMul.o [4]
__aeabi_dsub            0x000012f9         Code  Gb  DblSub.o [4]
__aeabi_i2d             0x000012c9         Code  Gb  I32ToDbl.o [4]
__aeabi_ldiv0           0x00001881         Code  Gb  I64DivZer.o [5]
__aeabi_ui2d            0x000012dd         Code  Gb  I32ToDbl.o [4]
__aeabi_uldivmod        0x00000f59         Code  Gb  I64DivMod.o [5]
__cmain                 0x00006311         Code  Gb  cmain.o [5]
__exit                  0x00006341         Code  Gb  XXexit.o [5]
__iar_Dnorm             0x000010bf   0x44  Code  Gb  xdnorm.o [4]
__iar_Dscale            0x00001165  0x10c  Code  Gb  xdscale.o [4]
__iar_Memchr            0x00000f01         Code  Gb  memchr.o [5]
__iar_Strchr            0x00000eb1         Code  Gb  strchr.o [5]
__iar_copy_init3        0x00006239   0x2c  Code  Gb  copy_init3.o [5]
__iar_d2uiz             0x000012a9         Code  Gb  DblToI32.o [4]
__iar_dadd              0x00001885         Code  Gb  DblAdd.o [4]
__iar_data_init3        0x0000628d   0x28  Code  Gb  data_init.o [5]
__iar_dsub              0x0000130d         Code  Gb  DblSub.o [4]
__iar_dsubStart         0x0000131f         Code  Gb  DblSub.o [4]
__iar_program_start     0x000063c9         Code  Gb  cstartup_M.o [5]
__iar_ui2d              0x000012e1         Code  Gb  I32ToDbl.o [4]
__iar_unaligned___aeabi_memcpy
                        0x00001049         Code  Gb  ABImemcpy_unaligned.o [5]
__iar_unaligned___aeabi_memcpy4
                        0x00001069         Code  Gb  ABImemcpy_unaligned.o [5]
__iar_unaligned___aeabi_memcpy8
                        0x00001069         Code  Gb  ABImemcpy_unaligned.o [5]
__iar_zero_init3        0x000061f9   0x40  Code  Gb  zero_init3.o [5]
__low_level_init        0x0000632b    0x4  Code  Gb  low_level_init.o [3]
__vector_table          0x00000000         Data  Gb  startup_efm32gg.o [1]
__vector_table_0x1c     0x0000001c         Data  Gb  startup_efm32gg.o [1]
__write                 0x00005f9f   0x38  Code  Gb  retargetio.o [1]
_call_main              0x0000631d         Code  Gb  cmain.o [5]
_exit                   0x00006335         Code  Gb  cexit.o [5]
_main                   0x00006327         Code  Gb  cmain.o [5]
assertEFM               0x0000253d    0x2  Code  Gb  em_assert.o [1]
auxClkGet               0x00002655   0x94  Code  Lc  em_cmu.o [1]
bcFwVersion             0x2000090c    0x2  Data  Lc  bsp_dk_3201.o [1]
bspOperationMode        0x200008e4    0x4  Data  Lc  bsp_dk_3201.o [1]
bufferReset             0x20000009    0x1  Data  Lc  retargettft.o [1]
busMode                 0x20000910    0x1  Data  Lc  bsp_dk_3201.o [1]
charBuffer              0x20000410  0x4b0  Data  Lc  retargettft.o [1]
chars_8x8_bits          0x00005108  0x320  Data  Lc  retargettft.o [1]
colorTransform24To16bpp
                        0x00004b7f   0x1c  Code  Lc  dmd_ssd2119_16bit.o [1]
command_register        0x200008f0    0x4  Data  Lc  dmdif_ssd2119_ebi16.o [1]
data_register           0x200008f4    0x4  Data  Lc  dmdif_ssd2119_ebi16.o [1]
dbgClkGet               0x000026e9   0x3c  Code  Lc  em_cmu.o [1]
dimensions              0x200008d8    0xc  Data  Gb  dmd_ssd2119_16bit.o [1]
div                     0x00001873    0xe  Code  Gb  div.o [3]
eepromData              0x20000911    0x1  Data  Lc  eepromtest.o [1]
eepromReset             0x20000912    0x1  Data  Lc  eepromtest.o [1]
eepromtestIRQInit       0x000054fd   0x42  Code  Gb  eepromtest.o [1]
eepromtestUpdateLCD     0x0000553f   0x12  Code  Gb  eepromtest.o [1]
emState                 0x00005bbf   0xcc  Code  Lc  em_emu.o [1]
emState::cmuStatus      0x200008f8    0x4  Data  Lc  em_emu.o [1]
emState::hfClock        0x20000913    0x1  Data  Lc  em_emu.o [1]
exit                    0x0000632f    0x4  Code  Gb  exit.o [3]
flashWaitStateControl   0x00002725   0xa2  Code  Lc  em_cmu.o [1]
flashWaitStateMax       0x000027c7    0xc  Code  Lc  em_cmu.o [1]
fullUpdate              0x20000008    0x1  Data  Lc  retargettft.o [1]
getErrataFixEmuE107En   0x00005c8b   0x40  Code  Lc  em_emu.o [1]
getHfLeConfig           0x00002629   0x2c  Code  Lc  em_cmu.o [1]
i2cNSum                 0x000063f0    0x4  Data  Lc  em_i2c.o [1]
i2cTransfer             0x200008c0   0x18  Data  Lc  em_i2c.o [1]
initialized             0x200008ec    0x4  Data  Lc  dmd_ssd2119_16bit.o [1]
initialized             0x20000915    0x1  Data  Lc  retargettft.o [1]
lastAddr                0x200008e8    0x4  Data  Lc  bsp_dk_3201.o [1]
lfClkGet                0x000027d3   0xf4  Code  Lc  em_cmu.o [1]
main                    0x00005551  0x11e  Code  Gb  eepromtest.o [1]
maxFreqHfle             0x0000259f   0x60  Code  Lc  em_cmu.o [1]
memchr                  0x00000f01         Code  Gb  memchr.o [5]
printf                  0x000056b5   0x24  Code  Gb  printf.o [3]
putchar                 0x00006265   0x28  Code  Gb  putchar.o [3]
rcDriverOutputControl   0x2000090e    0x2  Data  Lc  dmd_ssd2119_16bit.o [1]
rgbColor                0x200008fc    0x4  Data  Lc  retargettft.o [1]
setHfLeConfig           0x000025ff   0x2a  Code  Lc  em_cmu.o [1]
setNextReg              0x000047db   0x10  Code  Lc  dmdif_ssd2119_ebi16.o [1]
setPixelAddress         0x00004a2b   0x4a  Code  Gb  dmd_ssd2119_16bit.o [1]
strchr                  0x00000eb1         Code  Gb  strchr.o [5]
strlen                  0x00000ec9         Code  Gb  strlen.o [5]
syncReg                 0x000028c7   0x16  Code  Lc  em_cmu.o [1]
tftReset                0x2000000a    0x1  Data  Lc  retargettft.o [1]
tftTextReset            0x00003f01   0xf4  Code  Lc  retargettft.o [1]
tftTextScrollUp         0x00003ff5   0x6e  Code  Lc  retargettft.o [1]
usbCClkGet              0x000028dd   0x3e  Code  Lc  em_cmu.o [1]
xpos                    0x20000900    0x4  Data  Lc  retargettft.o [1]
ypos                    0x20000904    0x4  Data  Lc  retargettft.o [1]


[1] = D:\jenkins-slave\workspaces\Executor-0\super\app\mcu_example\EFM32GG_DK3750\eeprom\iar\eeprom\Debug\Obj
[2] = command line
[3] = dl7M_tln.a
[4] = m7M_tl.a
[5] = rt7M_tl.a

  23 694 bytes of readonly  code memory
   2 082 bytes of readonly  data memory
   2 321 bytes of readwrite data memory

Errors: none
Warnings: none
